# Game-logic symbols from libcocos2dcpp.so
# Total: 2005

ASN1_parse
ASN1_parse_dump
ASYNC_block_pause
ASYNC_unblock_pause
BIGNUM_it
BIO_parse_hostserv
BUF_MEM_grow
BUF_MEM_grow_clean
CBIGNUM_it
COMP_compress_block
COMP_expand_block
CONF_parse_list
Camellia_DecryptBlock
Camellia_DecryptBlock_Rounds
Camellia_EncryptBlock
Camellia_EncryptBlock_Rounds
DISPLAYTEXT_free
DISPLAYTEXT_it
DISPLAYTEXT_new
DequantizeLevels
EVP_CIPHER_CTX_block_size
EVP_CIPHER_block_size
EVP_DecodeBlock
EVP_EncodeBlock
EVP_MD_block_size
EVP_MD_meth_get_input_blocksize
EVP_MD_meth_set_input_blocksize
FT_Get_Track_Kerning
FT_Stream_GetULong
FT_Stream_GetULongLE
FT_Stream_ReadULong
FT_Stream_ReadULongLE
FT_Stroker_ParseOutline
Java_com_cmplay_util_NativeUtil_CostDiamond
Java_com_cmplay_util_NativeUtil_DiamondToLogFile
Java_com_cmplay_util_NativeUtil_H5Login
Java_com_cmplay_util_NativeUtil_ShareSuccessAddDiamondByChallengeMusic
Java_com_cmplay_util_NativeUtil_TouchMid
Java_com_cmplay_util_NativeUtil_adStatusCallback
Java_com_cmplay_util_NativeUtil_addComMusic
Java_com_cmplay_util_NativeUtil_addDiamonds
Java_com_cmplay_util_NativeUtil_addEnergys
Java_com_cmplay_util_NativeUtil_addGolds
Java_com_cmplay_util_NativeUtil_addIPMusic
Java_com_cmplay_util_NativeUtil_addOfferWallReward
Java_com_cmplay_util_NativeUtil_addRelives
Java_com_cmplay_util_NativeUtil_addRemoveAds
Java_com_cmplay_util_NativeUtil_androidLoadedEnd
Java_com_cmplay_util_NativeUtil_appInstallNotify
Java_com_cmplay_util_NativeUtil_backKeyClicked
Java_com_cmplay_util_NativeUtil_canMusicUnlockedInMessegeBox
Java_com_cmplay_util_NativeUtil_canShowMsgById
Java_com_cmplay_util_NativeUtil_checkDiffAccount
Java_com_cmplay_util_NativeUtil_checkTencentUrlLogin
Java_com_cmplay_util_NativeUtil_cloudUpdateNotify
Java_com_cmplay_util_NativeUtil_costCurCoin
Java_com_cmplay_util_NativeUtil_costCurHP
Java_com_cmplay_util_NativeUtil_doNotificationAction
Java_com_cmplay_util_NativeUtil_doPostFeedbackInfo
Java_com_cmplay_util_NativeUtil_gameInit
Java_com_cmplay_util_NativeUtil_gameRequestCallback
Java_com_cmplay_util_NativeUtil_getAlbumPersonalText
Java_com_cmplay_util_NativeUtil_getChallengeCopyAllFinishStatus
Java_com_cmplay_util_NativeUtil_getChallengeCurrentScore
Java_com_cmplay_util_NativeUtil_getChallengeLevel
Java_com_cmplay_util_NativeUtil_getChallengePassScore
Java_com_cmplay_util_NativeUtil_getChallengeStatus
Java_com_cmplay_util_NativeUtil_getCostPay
Java_com_cmplay_util_NativeUtil_getCurCoin
Java_com_cmplay_util_NativeUtil_getCurHP
Java_com_cmplay_util_NativeUtil_getDiamond
Java_com_cmplay_util_NativeUtil_getFaceBookId
Java_com_cmplay_util_NativeUtil_getGameStartTimes
Java_com_cmplay_util_NativeUtil_getHallLevel
Java_com_cmplay_util_NativeUtil_getHighestAchievement
Java_com_cmplay_util_NativeUtil_getInnerUUID
Java_com_cmplay_util_NativeUtil_getInstallTime
Java_com_cmplay_util_NativeUtil_getLanguageTextByKey
Java_com_cmplay_util_NativeUtil_getMsgPicNameByUrl
Java_com_cmplay_util_NativeUtil_getNetUUid
Java_com_cmplay_util_NativeUtil_getPhoneCode
Java_com_cmplay_util_NativeUtil_getPlayerInfo
Java_com_cmplay_util_NativeUtil_getPriceCallback
Java_com_cmplay_util_NativeUtil_getRankPercent
Java_com_cmplay_util_NativeUtil_getRanking
Java_com_cmplay_util_NativeUtil_getRecommendSongMid
Java_com_cmplay_util_NativeUtil_getScore
Java_com_cmplay_util_NativeUtil_getScoreLevel
Java_com_cmplay_util_NativeUtil_getShareDescription
Java_com_cmplay_util_NativeUtil_getShareUIBgImageInfo
Java_com_cmplay_util_NativeUtil_getSinglesRankingJson
Java_com_cmplay_util_NativeUtil_getSongName
Java_com_cmplay_util_NativeUtil_getSongOrder
Java_com_cmplay_util_NativeUtil_getStartTimes
Java_com_cmplay_util_NativeUtil_getSubscribeInfoCallback
Java_com_cmplay_util_NativeUtil_getTodayPlayTimes
Java_com_cmplay_util_NativeUtil_getTodaySpecialSongMid
Java_com_cmplay_util_NativeUtil_getTopChartsJson
Java_com_cmplay_util_NativeUtil_halloweenCallback
Java_com_cmplay_util_NativeUtil_hasSongBeenPlayed
Java_com_cmplay_util_NativeUtil_isFBEverLoginBefore
Java_com_cmplay_util_NativeUtil_isFirstPurchase
Java_com_cmplay_util_NativeUtil_isHolidayEnable
Java_com_cmplay_util_NativeUtil_isHolidayEntryShow
Java_com_cmplay_util_NativeUtil_isHolidayMccEnable
Java_com_cmplay_util_NativeUtil_isLoginGameCenter
Java_com_cmplay_util_NativeUtil_isRemovedAds
Java_com_cmplay_util_NativeUtil_isUnlockMusicByMid
Java_com_cmplay_util_NativeUtil_loginCallback
Java_com_cmplay_util_NativeUtil_mobileLogin
Java_com_cmplay_util_NativeUtil_mobileLoginDialogClose
Java_com_cmplay_util_NativeUtil_modifyDiamond
Java_com_cmplay_util_NativeUtil_modifyEnergy
Java_com_cmplay_util_NativeUtil_modifyGold
Java_com_cmplay_util_NativeUtil_notifyAttentionWechatPublicSuccess
Java_com_cmplay_util_NativeUtil_notifyCheckRecommendInstalled
Java_com_cmplay_util_NativeUtil_notifyNetWorkChange
Java_com_cmplay_util_NativeUtil_notifySelectImageResult
Java_com_cmplay_util_NativeUtil_notifySendRedPacketSuccess
Java_com_cmplay_util_NativeUtil_notifyStatusChanged
Java_com_cmplay_util_NativeUtil_notifyTokenChanged
Java_com_cmplay_util_NativeUtil_notifyWiredHeadState
Java_com_cmplay_util_NativeUtil_onCdFragmentDataChanged
Java_com_cmplay_util_NativeUtil_onCloudDataChanged
Java_com_cmplay_util_NativeUtil_onEditTextDone
Java_com_cmplay_util_NativeUtil_onExchangeFinish
Java_com_cmplay_util_NativeUtil_onFamilyGamesPushUpdate
Java_com_cmplay_util_NativeUtil_onLevelingDataChanged
Java_com_cmplay_util_NativeUtil_onNotificationRemoved
Java_com_cmplay_util_NativeUtil_onNotificationShow
Java_com_cmplay_util_NativeUtil_onOpenScreenClose
Java_com_cmplay_util_NativeUtil_onSettingsPushUpdate
Java_com_cmplay_util_NativeUtil_onShareH5ViewClosed
Java_com_cmplay_util_NativeUtil_onUploadDebugInfoRes
Java_com_cmplay_util_NativeUtil_openGetWeekRaceDiamondPage
Java_com_cmplay_util_NativeUtil_payCallback
Java_com_cmplay_util_NativeUtil_playSoundEffect
Java_com_cmplay_util_NativeUtil_pushDialogNotify
Java_com_cmplay_util_NativeUtil_pushGotoBattleNotify
Java_com_cmplay_util_NativeUtil_pushRankNotify
Java_com_cmplay_util_NativeUtil_pushTabNotify
Java_com_cmplay_util_NativeUtil_pushUnlockMusicNotify
Java_com_cmplay_util_NativeUtil_pushVipStoreNotify
Java_com_cmplay_util_NativeUtil_receiveFriendInviteUserId
Java_com_cmplay_util_NativeUtil_refreshSDKMessage
Java_com_cmplay_util_NativeUtil_refreshTencentTokenCallback
Java_com_cmplay_util_NativeUtil_reportData1
Java_com_cmplay_util_NativeUtil_reportHttpException
Java_com_cmplay_util_NativeUtil_reportLoginBtnPV
Java_com_cmplay_util_NativeUtil_reportMessagePush
Java_com_cmplay_util_NativeUtil_reportShareData
Java_com_cmplay_util_NativeUtil_reportTabshowForSorry
Java_com_cmplay_util_NativeUtil_reportTabshowOfShare
Java_com_cmplay_util_NativeUtil_reportTask
Java_com_cmplay_util_NativeUtil_reportWhitetile2Class
Java_com_cmplay_util_NativeUtil_reqInvitableFriendsCallback
Java_com_cmplay_util_NativeUtil_reqMeFriendsCallback
Java_com_cmplay_util_NativeUtil_reqMeInfoCallback
Java_com_cmplay_util_NativeUtil_reqPlayGamesUserInfoCallBack
Java_com_cmplay_util_NativeUtil_resetPublicData
Java_com_cmplay_util_NativeUtil_scheduleNotification
Java_com_cmplay_util_NativeUtil_scheduleNotifications
Java_com_cmplay_util_NativeUtil_sendConsumeInfo
Java_com_cmplay_util_NativeUtil_sendEmailCallback
Java_com_cmplay_util_NativeUtil_sendOrderInfo
Java_com_cmplay_util_NativeUtil_sendShowExpireDialog
Java_com_cmplay_util_NativeUtil_sendSubscribeState
Java_com_cmplay_util_NativeUtil_setIsInGame
Java_com_cmplay_util_NativeUtil_shareCallback
Java_com_cmplay_util_NativeUtil_showNotificationNative
Java_com_cmplay_util_NativeUtil_showTencentLoginNoticeDialog
Java_com_cmplay_util_NativeUtil_startVerificTransaction
Java_com_cmplay_util_NativeUtil_subscribePayCallback
Java_com_cmplay_util_NativeUtil_touchGhost
LONG_it
OCSP_parse_url
PKCS12_parse
QuantizeLevels
SSL_CTX_get_security_level
SSL_CTX_set_security_level
SSL_get_security_level
SSL_rstate_string_long
SSL_set_security_level
SXNET_add_id_ulong
SXNET_get_id_ulong
TIFFCheckTile
TIFFComputeTile
TIFFCurrentRow
TIFFCurrentTile
TIFFDefaultTileSize
TIFFFillTile
TIFFIsBigEndian
TIFFIsTiled
TIFFNumberOfTiles
TIFFReadEncodedTile
TIFFReadRGBATile
TIFFReadRawTile
TIFFReadTile
TIFFSwabArrayOfDouble
TIFFSwabArrayOfLong
TIFFSwabArrayOfLong8
TIFFSwabDouble
TIFFSwabLong
TIFFSwabLong8
TIFFTileRowSize
TIFFTileRowSize64
TIFFTileSize
TIFFTileSize64
TIFFVTileSize
TIFFVTileSize64
TIFFWriteEncodedTile
TIFFWriteRawTile
TIFFWriteTile
UI_process
VP8DecompressAlphaRows
VP8ParseIntraMode
VP8ParseProba
VP8ParseQuant
VP8ProcessRow
VP8ReconstructBlock
VP8StoreBlock
WebPParseHeaders
WebPRescalerExportRow
WebPRescalerImportRow
X509V3_parse_list
X509_VERIFY_PARAM_get_auth_level
X509_VERIFY_PARAM_set_auth_level
X509_policy_level_get0_node
X509_policy_level_node_count
X509_policy_tree_get0_level
X509_policy_tree_level_count
ZLONG_it
_TIFFDefaultTileSize
_TIFFNoRowDecode
_TIFFNoRowEncode
_TIFFNoTileDecode
_TIFFNoTileEncode
_TIFFUInt64ToDouble
_TIFFsetDoubleArray
_TIFFsetLong8Array
_TIFFsetLongArray
_Unwind_Resume_or_Rethrow
_ZN9__gnu_cxx13new_allocatorISt4pairIlSt6vectorISt9sub_matchINS_17__normal_iteratorIPKcSsEEESaIS8_EEEE10deallocateEPSB_m
_ZN9__gnu_cxx13new_allocatorISt4pairIlSt6vectorISt9sub_matchINS_17__normal_iteratorIPKcSsEEESaIS8_EEEE8allocateEmPKv
_ZN9__gnu_cxx13new_allocatorISt4pairIlSt6vectorISt9sub_matchINS_17__normal_iteratorIPKcSsEEESaIS8_EEEE9constructISB_JSB_EEEvPT_DpOT0_
_ZN9__gnu_cxx13new_allocatorISt4pairIlSt6vectorISt9sub_matchINS_17__normal_iteratorIPKcSsEEESaIS8_EEEEC1ERKSC_
_ZN9__gnu_cxx13new_allocatorISt4pairIlSt6vectorISt9sub_matchINS_17__normal_iteratorIPKcSsEEESaIS8_EEEEC1Ev
_ZN9__gnu_cxx13new_allocatorISt4pairIlSt6vectorISt9sub_matchINS_17__normal_iteratorIPKcSsEEESaIS8_EEEEC2ERKSC_
_ZN9__gnu_cxx13new_allocatorISt4pairIlSt6vectorISt9sub_matchINS_17__normal_iteratorIPKcSsEEESaIS8_EEEEC2Ev
_ZN9__gnu_cxx13new_allocatorISt4pairIlSt6vectorISt9sub_matchINS_17__normal_iteratorIPKcSsEEESaIS8_EEEED1Ev
_ZN9__gnu_cxx13new_allocatorISt4pairIlSt6vectorISt9sub_matchINS_17__normal_iteratorIPKcSsEEESaIS8_EEEED2Ev
_ZN9__gnu_cxx13new_allocatorISt9sub_matchINS_17__normal_iteratorIPKcSsEEEE10deallocateEPS6_m
_ZN9__gnu_cxx13new_allocatorISt9sub_matchINS_17__normal_iteratorIPKcSsEEEE8allocateEmPKv
_ZN9__gnu_cxx13new_allocatorISt9sub_matchINS_17__normal_iteratorIPKcSsEEEEC1ERKS7_
_ZN9__gnu_cxx13new_allocatorISt9sub_matchINS_17__normal_iteratorIPKcSsEEEEC1Ev
_ZN9__gnu_cxx13new_allocatorISt9sub_matchINS_17__normal_iteratorIPKcSsEEEEC2ERKS7_
_ZN9__gnu_cxx13new_allocatorISt9sub_matchINS_17__normal_iteratorIPKcSsEEEEC2Ev
_ZN9__gnu_cxx13new_allocatorISt9sub_matchINS_17__normal_iteratorIPKcSsEEEED1Ev
_ZN9__gnu_cxx13new_allocatorISt9sub_matchINS_17__normal_iteratorIPKcSsEEEED2Ev
_ZN9__gnu_cxx14__alloc_traitsISaISt9sub_matchINS_17__normal_iteratorIPKcSsEEEEE15_S_always_equalEv
_ZN9__gnu_cxx14__alloc_traitsISaISt9sub_matchINS_17__normal_iteratorIPKcSsEEEEE17_S_select_on_copyERKS7_
_ZN9__gnu_cxx14__alloc_traitsISaISt9sub_matchINS_17__normal_iteratorIPKcSsEEEEE27_S_propagate_on_copy_assignEv
_ZN9__gnu_cxx17__is_null_pointerINS_17__normal_iteratorIPDsSt6vectorIDsSaIDsEEEEEEbT_
_ZN9__gnu_cxx17__is_null_pointerINS_17__normal_iteratorIPKcSsEEEEbT_
_ZN9__gnu_cxx17__is_null_pointerINS_17__normal_iteratorIPcSsEEEEbT_
_ZN9__gnu_cxx17__normal_iteratorIPDsSt6vectorIDsSaIDsEEEC1ERKS1_
_ZN9__gnu_cxx17__normal_iteratorIPDsSt6vectorIDsSaIDsEEEC2ERKS1_
_ZN9__gnu_cxx17__normal_iteratorIPDsSt6vectorIDsSaIDsEEEpLEl
_ZN9__gnu_cxx17__normal_iteratorIPDsSt6vectorIDsSaIDsEEEppEv
_ZN9__gnu_cxx17__normal_iteratorIPKDsSt6vectorIDsSaIDsEEEC1ERKS2_
_ZN9__gnu_cxx17__normal_iteratorIPKDsSt6vectorIDsSaIDsEEEC1IPDsEERKNS0_IT_NS_11__enable_ifIXsrSt10__are_sameIS9_S8_E7__valueES5_E6__typeEEE
_ZN9__gnu_cxx17__normal_iteratorIPKDsSt6vectorIDsSaIDsEEEC2ERKS2_
_ZN9__gnu_cxx17__normal_iteratorIPKDsSt6vectorIDsSaIDsEEEC2IPDsEERKNS0_IT_NS_11__enable_ifIXsrSt10__are_sameIS9_S8_E7__valueES5_E6__typeEEE
_ZN9__gnu_cxx17__normal_iteratorIPKNSt12regex_traitsIcE10_RegexMaskESt6vectorIS3_SaIS3_EEEC1ERKS5_
_ZN9__gnu_cxx17__normal_iteratorIPKNSt12regex_traitsIcE10_RegexMaskESt6vectorIS3_SaIS3_EEEC2ERKS5_
_ZN9__gnu_cxx17__normal_iteratorIPKNSt12regex_traitsIcE10_RegexMaskESt6vectorIS3_SaIS3_EEEppEv
_ZN9__gnu_cxx17__normal_iteratorIPKSsSt6vectorISsSaISsEEEC1ERKS2_
_ZN9__gnu_cxx17__normal_iteratorIPKSsSt6vectorISsSaISsEEEC1IPSsEERKNS0_IT_NS_11__enable_ifIXsrSt10__are_sameIS9_S8_E7__valueES5_E6__typeEEE
_ZN9__gnu_cxx17__normal_iteratorIPKSsSt6vectorISsSaISsEEEC2ERKS2_
_ZN9__gnu_cxx17__normal_iteratorIPKSsSt6vectorISsSaISsEEEC2IPSsEERKNS0_IT_NS_11__enable_ifIXsrSt10__are_sameIS9_S8_E7__valueES5_E6__typeEEE
_ZN9__gnu_cxx17__normal_iteratorIPKSsSt6vectorISsSaISsEEEppEv
_ZN9__gnu_cxx17__normal_iteratorIPKSt4pairISsSsESt6vectorIS2_SaIS2_EEEC1ERKS4_
_ZN9__gnu_cxx17__normal_iteratorIPKSt4pairISsSsESt6vectorIS2_SaIS2_EEEC2ERKS4_
_ZN9__gnu_cxx17__normal_iteratorIPKSt4pairISsSsESt6vectorIS2_SaIS2_EEEppEv
_ZN9__gnu_cxx17__normal_iteratorIPKSt4pairIccESt6vectorIS2_SaIS2_EEEC1ERKS4_
_ZN9__gnu_cxx17__normal_iteratorIPKSt4pairIccESt6vectorIS2_SaIS2_EEEC2ERKS4_
_ZN9__gnu_cxx17__normal_iteratorIPKSt4pairIccESt6vectorIS2_SaIS2_EEEppEv
_ZN9__gnu_cxx17__normal_iteratorIPKSt4pairIlSt6vectorISt9sub_matchINS0_IPKcSsEEESaIS7_EEES2_ISA_SaISA_EEEC1ERKSC_
_ZN9__gnu_cxx17__normal_iteratorIPKSt4pairIlSt6vectorISt9sub_matchINS0_IPKcSsEEESaIS7_EEES2_ISA_SaISA_EEEC2ERKSC_
_ZN9__gnu_cxx17__normal_iteratorIPKSt8functionIFvvEESt6vectorIS3_SaIS3_EEEC1ERKS5_
_ZN9__gnu_cxx17__normal_iteratorIPKSt8functionIFvvEESt6vectorIS3_SaIS3_EEEC2ERKS5_
_ZN9__gnu_cxx17__normal_iteratorIPKSt8functionIFvvEESt6vectorIS3_SaIS3_EEEppEv
_ZN9__gnu_cxx17__normal_iteratorIPKSt9sub_matchINS0_IPKcSsEEESt6vectorIS5_SaIS5_EEEC1ERKS7_
_ZN9__gnu_cxx17__normal_iteratorIPKSt9sub_matchINS0_IPKcSsEEESt6vectorIS5_SaIS5_EEEC2ERKS7_
_ZN9__gnu_cxx17__normal_iteratorIPKSt9sub_matchINS0_IPKcSsEEESt6vectorIS5_SaIS5_EEEppEv
_ZN9__gnu_cxx17__normal_iteratorIPKcSsEC1Ev
_ZN9__gnu_cxx17__normal_iteratorIPKcSsEC2Ev
_ZN9__gnu_cxx17__normal_iteratorIPKcSsEmmEv
_ZN9__gnu_cxx17__normal_iteratorIPKcSsEppEv
_ZN9__gnu_cxx17__normal_iteratorIPKcSt6vectorIcSaIcEEEC1ERKS2_
_ZN9__gnu_cxx17__normal_iteratorIPKcSt6vectorIcSaIcEEEC1IPcEERKNS0_IT_NS_11__enable_ifIXsrSt10__are_sameIS9_S8_E7__valueES5_E6__typeEEE
_ZN9__gnu_cxx17__normal_iteratorIPKcSt6vectorIcSaIcEEEC2ERKS2_
_ZN9__gnu_cxx17__normal_iteratorIPKcSt6vectorIcSaIcEEEC2IPcEERKNS0_IT_NS_11__enable_ifIXsrSt10__are_sameIS9_S8_E7__valueES5_E6__typeEEE
_ZN9__gnu_cxx17__normal_iteratorIPKcSt6vectorIcSaIcEEEppEv
_ZN9__gnu_cxx17__normal_iteratorIPKfSt6vectorIfSaIfEEEC1ERKS2_
_ZN9__gnu_cxx17__normal_iteratorIPKfSt6vectorIfSaIfEEEC1IPfEERKNS0_IT_NS_11__enable_ifIXsrSt10__are_sameIS9_S8_E7__valueES5_E6__typeEEE
_ZN9__gnu_cxx17__normal_iteratorIPKfSt6vectorIfSaIfEEEC2ERKS2_
_ZN9__gnu_cxx17__normal_iteratorIPKfSt6vectorIfSaIfEEEC2IPfEERKNS0_IT_NS_11__enable_ifIXsrSt10__are_sameIS9_S8_E7__valueES5_E6__typeEEE
_ZN9__gnu_cxx17__normal_iteratorIPKiSt6vectorIiSaIiEEEC1ERKS2_
_ZN9__gnu_cxx17__normal_iteratorIPKiSt6vectorIiSaIiEEEC1IPiEERKNS0_IT_NS_11__enable_ifIXsrSt10__are_sameIS9_S8_E7__valueES5_E6__typeEEE
_ZN9__gnu_cxx17__normal_iteratorIPKiSt6vectorIiSaIiEEEC2ERKS2_
_ZN9__gnu_cxx17__normal_iteratorIPKiSt6vectorIiSaIiEEEC2IPiEERKNS0_IT_NS_11__enable_ifIXsrSt10__are_sameIS9_S8_E7__valueES5_E6__typeEEE
_ZN9__gnu_cxx17__normal_iteratorIPKiSt6vectorIiSaIiEEEppEv
_ZN9__gnu_cxx17__normal_iteratorIPKtSt6vectorItSaItEEEC1ERKS2_
_ZN9__gnu_cxx17__normal_iteratorIPKtSt6vectorItSaItEEEC1IPtEERKNS0_IT_NS_11__enable_ifIXsrSt10__are_sameIS9_S8_E7__valueES5_E6__typeEEE
_ZN9__gnu_cxx17__normal_iteratorIPKtSt6vectorItSaItEEEC2ERKS2_
_ZN9__gnu_cxx17__normal_iteratorIPKtSt6vectorItSaItEEEC2IPtEERKNS0_IT_NS_11__enable_ifIXsrSt10__are_sameIS9_S8_E7__valueES5_E6__typeEEE
_ZN9__gnu_cxx17__normal_iteratorIPKtSt6vectorItSaItEEEppEv
_ZN9__gnu_cxx17__normal_iteratorIPNSt8__detail6_StateISt12regex_traitsIcEEESt6vectorIS5_SaIS5_EEEC1ERKS6_
_ZN9__gnu_cxx17__normal_iteratorIPNSt8__detail6_StateISt12regex_traitsIcEEESt6vectorIS5_SaIS5_EEEC2ERKS6_
_ZN9__gnu_cxx17__normal_iteratorIPNSt8__detail6_StateISt12regex_traitsIcEEESt6vectorIS5_SaIS5_EEEppEv
_ZN9__gnu_cxx17__normal_iteratorIPSsSt6vectorISsSaISsEEEC1ERKS1_
_ZN9__gnu_cxx17__normal_iteratorIPSsSt6vectorISsSaISsEEEC2ERKS1_
_ZN9__gnu_cxx17__normal_iteratorIPSsSt6vectorISsSaISsEEEppEi
_ZN9__gnu_cxx17__normal_iteratorIPSsSt6vectorISsSaISsEEEppEv
_ZN9__gnu_cxx17__normal_iteratorIPSt4pairIlSt6vectorISt9sub_matchINS0_IPKcSsEEESaIS7_EEES2_ISA_SaISA_EEEC1ERKSB_
_ZN9__gnu_cxx17__normal_iteratorIPSt4pairIlSt6vectorISt9sub_matchINS0_IPKcSsEEESaIS7_EEES2_ISA_SaISA_EEEC2ERKSB_
_ZN9__gnu_cxx17__normal_iteratorIPSt4pairIlSt6vectorISt9sub_matchINS0_IPKcSsEEESaIS7_EEES2_ISA_SaISA_EEEppEv
_ZN9__gnu_cxx17__normal_iteratorIPSt8functionIFvvEESt6vectorIS3_SaIS3_EEEC1ERKS4_
_ZN9__gnu_cxx17__normal_iteratorIPSt8functionIFvvEESt6vectorIS3_SaIS3_EEEC2ERKS4_
_ZN9__gnu_cxx17__normal_iteratorIPSt8functionIFvvEESt6vectorIS3_SaIS3_EEEppEv
_ZN9__gnu_cxx17__normal_iteratorIPSt9sub_matchINS0_IPKcSsEEESt6vectorIS5_SaIS5_EEEC1ERKS6_
_ZN9__gnu_cxx17__normal_iteratorIPSt9sub_matchINS0_IPKcSsEEESt6vectorIS5_SaIS5_EEEC2ERKS6_
_ZN9__gnu_cxx17__normal_iteratorIPSt9sub_matchINS0_IPKcSsEEESt6vectorIS5_SaIS5_EEEppEv
_ZN9__gnu_cxx17__normal_iteratorIPcSsEmmEv
_ZN9__gnu_cxx17__normal_iteratorIPcSsEppEv
_ZN9__gnu_cxx17__normal_iteratorIPcSt6vectorIcSaIcEEEC1ERKS1_
_ZN9__gnu_cxx17__normal_iteratorIPcSt6vectorIcSaIcEEEC2ERKS1_
_ZN9__gnu_cxx17__normal_iteratorIPfSt6vectorIfSaIfEEEC1ERKS1_
_ZN9__gnu_cxx17__normal_iteratorIPfSt6vectorIfSaIfEEEC2ERKS1_
_ZN9__gnu_cxx17__normal_iteratorIPfSt6vectorIfSaIfEEEmmEv
_ZN9__gnu_cxx17__normal_iteratorIPfSt6vectorIfSaIfEEEppEv
_ZN9__gnu_cxx17__normal_iteratorIPiSt6vectorIiSaIiEEEC1ERKS1_
_ZN9__gnu_cxx17__normal_iteratorIPiSt6vectorIiSaIiEEEC2ERKS1_
_ZN9__gnu_cxx17__normal_iteratorIPiSt6vectorIiSaIiEEEppEv
_ZN9__gnu_cxx17__normal_iteratorIPjSt6vectorIjSaIjEEEC1ERKS1_
_ZN9__gnu_cxx17__normal_iteratorIPjSt6vectorIjSaIjEEEC2ERKS1_
_ZN9__gnu_cxx17__normal_iteratorIPjSt6vectorIjSaIjEEEppEv
_ZN9__gnu_cxx17__normal_iteratorIPlSt6vectorIlSaIlEEEC1ERKS1_
_ZN9__gnu_cxx17__normal_iteratorIPlSt6vectorIlSaIlEEEC2ERKS1_
_ZN9__gnu_cxx17__normal_iteratorIPlSt6vectorIlSaIlEEEppEv
_ZN9__gnu_cxx17__normal_iteratorIPmSt6vectorImSaImEEEC1ERKS1_
_ZN9__gnu_cxx17__normal_iteratorIPmSt6vectorImSaImEEEC2ERKS1_
_ZN9__gnu_cxx17__normal_iteratorIPmSt6vectorImSaImEEEppEv
_ZN9__gnu_cxx17__normal_iteratorIPtSt6vectorItSaItEEEC1ERKS1_
_ZN9__gnu_cxx17__normal_iteratorIPtSt6vectorItSaItEEEC2ERKS1_
_ZN9__gnu_cxxeqIPDsSt6vectorIDsSaIDsEEEEbRKNS_17__normal_iteratorIT_T0_EESA_
_ZN9__gnu_cxxeqIPKDsSt6vectorIDsSaIDsEEEEbRKNS_17__normal_iteratorIT_T0_EESB_
_ZN9__gnu_cxxeqIPKSsPSsSt6vectorISsSaISsEEEEbRKNS_17__normal_iteratorIT_T1_EERKNS7_IT0_S9_EE
_ZN9__gnu_cxxeqIPKSsSt6vectorISsSaISsEEEEbRKNS_17__normal_iteratorIT_T0_EESB_
_ZN9__gnu_cxxeqIPKSt4pairIlSt6vectorISt9sub_matchINS_17__normal_iteratorIPKcSsEEESaIS8_EEES2_ISB_SaISB_EEEEbRKNS4_IT_T0_EESK_
_ZN9__gnu_cxxeqIPKSt8functionIFvvEESt6vectorIS3_SaIS3_EEEEbRKNS_17__normal_iteratorIT_T0_EESE_
_ZN9__gnu_cxxeqIPfSt6vectorIfSaIfEEEEbRKNS_17__normal_iteratorIT_T0_EESA_
_ZN9__gnu_cxxeqIPiSt6vectorIiSaIiEEEEbRKNS_17__normal_iteratorIT_T0_EESA_
_ZN9__gnu_cxxltIPfSt6vectorIfSaIfEEEEbRKNS_17__normal_iteratorIT_T0_EESA_
_ZN9__gnu_cxxmiIPDsSt6vectorIDsSaIDsEEEENS_17__normal_iteratorIT_T0_E15difference_typeERKS8_SB_
_ZN9__gnu_cxxmiIPKDsSt6vectorIDsSaIDsEEEENS_17__normal_iteratorIT_T0_E15difference_typeERKS9_SC_
_ZN9__gnu_cxxmiIPKSsPSsSt6vectorISsSaISsEEEEDTmicldtfp_4baseEcldtfp0_4baseEERKNS_17__normal_iteratorIT_T1_EERKNS8_IT0_SA_EE
_ZN9__gnu_cxxmiIPKSsSt6vectorISsSaISsEEEENS_17__normal_iteratorIT_T0_E15difference_typeERKS9_SC_
_ZN9__gnu_cxxmiIPKcSsEENS_17__normal_iteratorIT_T0_E15difference_typeERKS6_S9_
_ZN9__gnu_cxxmiIPKcSt6vectorIcSaIcEEEENS_17__normal_iteratorIT_T0_E15difference_typeERKS9_SC_
_ZN9__gnu_cxxmiIPKfSt6vectorIfSaIfEEEENS_17__normal_iteratorIT_T0_E15difference_typeERKS9_SC_
_ZN9__gnu_cxxmiIPKiSt6vectorIiSaIiEEEENS_17__normal_iteratorIT_T0_E15difference_typeERKS9_SC_
_ZN9__gnu_cxxmiIPKtSt6vectorItSaItEEEENS_17__normal_iteratorIT_T0_E15difference_typeERKS9_SC_
_ZN9__gnu_cxxmiIPSsSt6vectorISsSaISsEEEENS_17__normal_iteratorIT_T0_E15difference_typeERKS8_SB_
_ZN9__gnu_cxxmiIPcSsEENS_17__normal_iteratorIT_T0_E15difference_typeERKS5_S8_
_ZN9__gnu_cxxmiIPcSt6vectorIcSaIcEEEENS_17__normal_iteratorIT_T0_E15difference_typeERKS8_SB_
_ZN9__gnu_cxxmiIPfSt6vectorIfSaIfEEEENS_17__normal_iteratorIT_T0_E15difference_typeERKS8_SB_
_ZN9__gnu_cxxmiIPiSt6vectorIiSaIiEEEENS_17__normal_iteratorIT_T0_E15difference_typeERKS8_SB_
_ZN9__gnu_cxxmiIPtSt6vectorItSaItEEEENS_17__normal_iteratorIT_T0_E15difference_typeERKS8_SB_
_ZN9__gnu_cxxneIPDsSt6vectorIDsSaIDsEEEEbRKNS_17__normal_iteratorIT_T0_EESA_
_ZN9__gnu_cxxneIPKNSt12regex_traitsIcE10_RegexMaskESt6vectorIS3_SaIS3_EEEEbRKNS_17__normal_iteratorIT_T0_EESE_
_ZN9__gnu_cxxneIPKSsSt6vectorISsSaISsEEEEbRKNS_17__normal_iteratorIT_T0_EESB_
_ZN9__gnu_cxxneIPKSt4pairISsSsESt6vectorIS2_SaIS2_EEEEbRKNS_17__normal_iteratorIT_T0_EESD_
_ZN9__gnu_cxxneIPKSt4pairIccESt6vectorIS2_SaIS2_EEEEbRKNS_17__normal_iteratorIT_T0_EESD_
_ZN9__gnu_cxxneIPKSt8functionIFvvEESt6vectorIS3_SaIS3_EEEEbRKNS_17__normal_iteratorIT_T0_EESE_
_ZN9__gnu_cxxneIPKSt9sub_matchINS_17__normal_iteratorIPKcSsEEESt6vectorIS6_SaIS6_EEEEbRKNS2_IT_T0_EESG_
_ZN9__gnu_cxxneIPKcSsEEbRKNS_17__normal_iteratorIT_T0_EES8_
_ZN9__gnu_cxxneIPKcSt6vectorIcSaIcEEEEbRKNS_17__normal_iteratorIT_T0_EESB_
_ZN9__gnu_cxxneIPKiSt6vectorIiSaIiEEEEbRKNS_17__normal_iteratorIT_T0_EESB_
_ZN9__gnu_cxxneIPKtSt6vectorItSaItEEEEbRKNS_17__normal_iteratorIT_T0_EESB_
_ZN9__gnu_cxxneIPNSt8__detail6_StateISt12regex_traitsIcEEESt6vectorIS5_SaIS5_EEEEbRKNS_17__normal_iteratorIT_T0_EESF_
_ZN9__gnu_cxxneIPSsSt6vectorISsSaISsEEEEbRKNS_17__normal_iteratorIT_T0_EESA_
_ZN9__gnu_cxxneIPSt4pairIlSt6vectorISt9sub_matchINS_17__normal_iteratorIPKcSsEEESaIS8_EEES2_ISB_SaISB_EEEEbRKNS4_IT_T0_EESJ_
_ZN9__gnu_cxxneIPSt8functionIFvvEESt6vectorIS3_SaIS3_EEEEbRKNS_17__normal_iteratorIT_T0_EESD_
_ZN9__gnu_cxxneIPSt9sub_matchINS_17__normal_iteratorIPKcSsEEESt6vectorIS6_SaIS6_EEEEbRKNS2_IT_T0_EESF_
_ZN9__gnu_cxxneIPcSsEEbRKNS_17__normal_iteratorIT_T0_EES7_
_ZN9__gnu_cxxneIPfSt6vectorIfSaIfEEEEbRKNS_17__normal_iteratorIT_T0_EESA_
_ZN9__gnu_cxxneIPiSt6vectorIiSaIiEEEEbRKNS_17__normal_iteratorIT_T0_EESA_
_ZN9__gnu_cxxneIPjSt6vectorIjSaIjEEEEbRKNS_17__normal_iteratorIT_T0_EESA_
_ZN9__gnu_cxxneIPlSt6vectorIlSaIlEEEEbRKNS_17__normal_iteratorIT_T0_EESA_
_ZN9__gnu_cxxneIPmSt6vectorImSaImEEEEbRKNS_17__normal_iteratorIT_T0_EESA_
_ZNK9__gnu_cxx13new_allocatorISt4pairIlSt6vectorISt9sub_matchINS_17__normal_iteratorIPKcSsEEESaIS8_EEEE8max_sizeEv
_ZNK9__gnu_cxx13new_allocatorISt9sub_matchINS_17__normal_iteratorIPKcSsEEEE8max_sizeEv
_ZNK9__gnu_cxx17__normal_iteratorIPDsSt6vectorIDsSaIDsEEE4baseEv
_ZNK9__gnu_cxx17__normal_iteratorIPDsSt6vectorIDsSaIDsEEEdeEv
_ZNK9__gnu_cxx17__normal_iteratorIPDsSt6vectorIDsSaIDsEEEmiEl
_ZNK9__gnu_cxx17__normal_iteratorIPDsSt6vectorIDsSaIDsEEEplEl
_ZNK9__gnu_cxx17__normal_iteratorIPKDsSt6vectorIDsSaIDsEEE4baseEv
_ZNK9__gnu_cxx17__normal_iteratorIPKNSt12regex_traitsIcE10_RegexMaskESt6vectorIS3_SaIS3_EEE4baseEv
_ZNK9__gnu_cxx17__normal_iteratorIPKNSt12regex_traitsIcE10_RegexMaskESt6vectorIS3_SaIS3_EEEdeEv
_ZNK9__gnu_cxx17__normal_iteratorIPKSsSt6vectorISsSaISsEEE4baseEv
_ZNK9__gnu_cxx17__normal_iteratorIPKSsSt6vectorISsSaISsEEEdeEv
_ZNK9__gnu_cxx17__normal_iteratorIPKSt4pairISsSsESt6vectorIS2_SaIS2_EEE4baseEv
_ZNK9__gnu_cxx17__normal_iteratorIPKSt4pairISsSsESt6vectorIS2_SaIS2_EEEdeEv
_ZNK9__gnu_cxx17__normal_iteratorIPKSt4pairIccESt6vectorIS2_SaIS2_EEE4baseEv
_ZNK9__gnu_cxx17__normal_iteratorIPKSt4pairIccESt6vectorIS2_SaIS2_EEEdeEv
_ZNK9__gnu_cxx17__normal_iteratorIPKSt4pairIlSt6vectorISt9sub_matchINS0_IPKcSsEEESaIS7_EEES2_ISA_SaISA_EEE4baseEv
_ZNK9__gnu_cxx17__normal_iteratorIPKSt8functionIFvvEESt6vectorIS3_SaIS3_EEE4baseEv
_ZNK9__gnu_cxx17__normal_iteratorIPKSt8functionIFvvEESt6vectorIS3_SaIS3_EEEdeEv
_ZNK9__gnu_cxx17__normal_iteratorIPKSt9sub_matchINS0_IPKcSsEEESt6vectorIS5_SaIS5_EEE4baseEv
_ZNK9__gnu_cxx17__normal_iteratorIPKSt9sub_matchINS0_IPKcSsEEESt6vectorIS5_SaIS5_EEEdeEv
_ZNK9__gnu_cxx17__normal_iteratorIPKcSsE4baseEv
_ZNK9__gnu_cxx17__normal_iteratorIPKcSsEdeEv
_ZNK9__gnu_cxx17__normal_iteratorIPKcSt6vectorIcSaIcEEE4baseEv
_ZNK9__gnu_cxx17__normal_iteratorIPKcSt6vectorIcSaIcEEEdeEv
_ZNK9__gnu_cxx17__normal_iteratorIPKfSt6vectorIfSaIfEEE4baseEv
_ZNK9__gnu_cxx17__normal_iteratorIPKiSt6vectorIiSaIiEEE4baseEv
_ZNK9__gnu_cxx17__normal_iteratorIPKiSt6vectorIiSaIiEEEdeEv
_ZNK9__gnu_cxx17__normal_iteratorIPKtSt6vectorItSaItEEE4baseEv
_ZNK9__gnu_cxx17__normal_iteratorIPKtSt6vectorItSaItEEEdeEv
_ZNK9__gnu_cxx17__normal_iteratorIPNSt8__detail6_StateISt12regex_traitsIcEEESt6vectorIS5_SaIS5_EEE4baseEv
_ZNK9__gnu_cxx17__normal_iteratorIPNSt8__detail6_StateISt12regex_traitsIcEEESt6vectorIS5_SaIS5_EEEdeEv
_ZNK9__gnu_cxx17__normal_iteratorIPSsSt6vectorISsSaISsEEE4baseEv
_ZNK9__gnu_cxx17__normal_iteratorIPSsSt6vectorISsSaISsEEEdeEv
_ZNK9__gnu_cxx17__normal_iteratorIPSsSt6vectorISsSaISsEEEplEl
_ZNK9__gnu_cxx17__normal_iteratorIPSt4pairIlSt6vectorISt9sub_matchINS0_IPKcSsEEESaIS7_EEES2_ISA_SaISA_EEE4baseEv
_ZNK9__gnu_cxx17__normal_iteratorIPSt4pairIlSt6vectorISt9sub_matchINS0_IPKcSsEEESaIS7_EEES2_ISA_SaISA_EEEdeEv
_ZNK9__gnu_cxx17__normal_iteratorIPSt8functionIFvvEESt6vectorIS3_SaIS3_EEE4baseEv
_ZNK9__gnu_cxx17__normal_iteratorIPSt8functionIFvvEESt6vectorIS3_SaIS3_EEEdeEv
_ZNK9__gnu_cxx17__normal_iteratorIPSt9sub_matchINS0_IPKcSsEEESt6vectorIS5_SaIS5_EEE4baseEv
_ZNK9__gnu_cxx17__normal_iteratorIPSt9sub_matchINS0_IPKcSsEEESt6vectorIS5_SaIS5_EEEdeEv
_ZNK9__gnu_cxx17__normal_iteratorIPcSsE4baseEv
_ZNK9__gnu_cxx17__normal_iteratorIPcSsEdeEv
_ZNK9__gnu_cxx17__normal_iteratorIPcSt6vectorIcSaIcEEE4baseEv
_ZNK9__gnu_cxx17__normal_iteratorIPcSt6vectorIcSaIcEEEdeEv
_ZNK9__gnu_cxx17__normal_iteratorIPcSt6vectorIcSaIcEEEplEl
_ZNK9__gnu_cxx17__normal_iteratorIPfSt6vectorIfSaIfEEE4baseEv
_ZNK9__gnu_cxx17__normal_iteratorIPfSt6vectorIfSaIfEEEdeEv
_ZNK9__gnu_cxx17__normal_iteratorIPfSt6vectorIfSaIfEEEmiEl
_ZNK9__gnu_cxx17__normal_iteratorIPfSt6vectorIfSaIfEEEplEl
_ZNK9__gnu_cxx17__normal_iteratorIPiSt6vectorIiSaIiEEE4baseEv
_ZNK9__gnu_cxx17__normal_iteratorIPiSt6vectorIiSaIiEEEdeEv
_ZNK9__gnu_cxx17__normal_iteratorIPiSt6vectorIiSaIiEEEplEl
_ZNK9__gnu_cxx17__normal_iteratorIPjSt6vectorIjSaIjEEE4baseEv
_ZNK9__gnu_cxx17__normal_iteratorIPjSt6vectorIjSaIjEEEdeEv
_ZNK9__gnu_cxx17__normal_iteratorIPlSt6vectorIlSaIlEEE4baseEv
_ZNK9__gnu_cxx17__normal_iteratorIPlSt6vectorIlSaIlEEEdeEv
_ZNK9__gnu_cxx17__normal_iteratorIPmSt6vectorImSaImEEE4baseEv
_ZNK9__gnu_cxx17__normal_iteratorIPmSt6vectorImSaImEEEdeEv
_ZNK9__gnu_cxx17__normal_iteratorIPmSt6vectorImSaImEEEmiEl
_ZNK9__gnu_cxx17__normal_iteratorIPtSt6vectorItSaItEEE4baseEv
_ZNK9__gnu_cxx17__normal_iteratorIPtSt6vectorItSaItEEEplEl
_ZNKSt10unique_ptrINSt8__detail9_ExecutorIN9__gnu_cxx17__normal_iteratorIPKcSsEESaISt9sub_matchIS6_EESt12regex_traitsIcELb0EEESt14default_deleteISC_EE3getEv
_ZNKSt10unique_ptrINSt8__detail9_ExecutorIN9__gnu_cxx17__normal_iteratorIPKcSsEESaISt9sub_matchIS6_EESt12regex_traitsIcELb0EEESt14default_deleteISC_EEptEv
_ZNKSt10unique_ptrINSt8__detail9_ExecutorIN9__gnu_cxx17__normal_iteratorIPKcSsEESaISt9sub_matchIS6_EESt12regex_traitsIcELb1EEESt14default_deleteISC_EE3getEv
_ZNKSt10unique_ptrINSt8__detail9_ExecutorIN9__gnu_cxx17__normal_iteratorIPKcSsEESaISt9sub_matchIS6_EESt12regex_traitsIcELb1EEESt14default_deleteISC_EEptEv
_ZNKSt10unique_ptrISt6vectorISt4pairIlS0_ISt9sub_matchIN9__gnu_cxx17__normal_iteratorIPKcSsEEESaIS8_EEESaISB_EESt14default_deleteISD_EE3getEv
_ZNKSt10unique_ptrISt6vectorISt4pairIlS0_ISt9sub_matchIN9__gnu_cxx17__normal_iteratorIPKcSsEEESaIS8_EEESaISB_EESt14default_deleteISD_EEdeEv
_ZNKSt10unique_ptrISt6vectorISt4pairIlS0_ISt9sub_matchIN9__gnu_cxx17__normal_iteratorIPKcSsEEESaIS8_EEESaISB_EESt14default_deleteISD_EEptEv
_ZNKSt12_Vector_baseISt4pairIlSt6vectorISt9sub_matchIN9__gnu_cxx17__normal_iteratorIPKcSsEEESaIS8_EEESaISB_EE19_M_get_Tp_allocatorEv
_ZNKSt12_Vector_baseISt9sub_matchIN9__gnu_cxx17__normal_iteratorIPKcSsEEESaIS6_EE13get_allocatorEv
_ZNKSt12_Vector_baseISt9sub_matchIN9__gnu_cxx17__normal_iteratorIPKcSsEEESaIS6_EE19_M_get_Tp_allocatorEv
_ZNKSt12regex_traitsIcE9transformIN9__gnu_cxx17__normal_iteratorIPKcSsEEEESsT_S7_
_ZNKSt12regex_traitsIcE9transformIN9__gnu_cxx17__normal_iteratorIPcSsEEEESsT_S6_
_ZNKSt13move_iteratorIPSt4pairIlSt6vectorISt9sub_matchIN9__gnu_cxx17__normal_iteratorIPKcSsEEESaIS8_EEEE4baseEv
_ZNKSt13move_iteratorIPSt4pairIlSt6vectorISt9sub_matchIN9__gnu_cxx17__normal_iteratorIPKcSsEEESaIS8_EEEEdeEv
_ZNKSt13move_iteratorIPSt9sub_matchIN9__gnu_cxx17__normal_iteratorIPKcSsEEEE4baseEv
_ZNKSt13move_iteratorIPSt9sub_matchIN9__gnu_cxx17__normal_iteratorIPKcSsEEEEdeEv
_ZNKSt14default_deleteINSt8__detail9_ExecutorIN9__gnu_cxx17__normal_iteratorIPKcSsEESaISt9sub_matchIS6_EESt12regex_traitsIcELb0EEEEclEPSC_
_ZNKSt14default_deleteINSt8__detail9_ExecutorIN9__gnu_cxx17__normal_iteratorIPKcSsEESaISt9sub_matchIS6_EESt12regex_traitsIcELb1EEEEclEPSC_
_ZNKSt14default_deleteISt6vectorISt4pairIlS0_ISt9sub_matchIN9__gnu_cxx17__normal_iteratorIPKcSsEEESaIS8_EEESaISB_EEEclEPSD_
_ZNKSt16reverse_iteratorIN9__gnu_cxx17__normal_iteratorIPcSsEEE4baseEv
_ZNKSt16reverse_iteratorIN9__gnu_cxx17__normal_iteratorIPcSsEEEdeEv
_ZNKSt5ctypeIcE6narrowEPKcS2_cPc
_ZNKSt5ctypeIcE6narrowEcc
_ZNKSt6vectorISt4pairIlS_ISt9sub_matchIN9__gnu_cxx17__normal_iteratorIPKcSsEEESaIS7_EEESaISA_EE12_M_check_lenEmS5_
_ZNKSt6vectorISt4pairIlS_ISt9sub_matchIN9__gnu_cxx17__normal_iteratorIPKcSsEEESaIS7_EEESaISA_EE3endEv
_ZNKSt6vectorISt4pairIlS_ISt9sub_matchIN9__gnu_cxx17__normal_iteratorIPKcSsEEESaIS7_EEESaISA_EE4sizeEv
_ZNKSt6vectorISt4pairIlS_ISt9sub_matchIN9__gnu_cxx17__normal_iteratorIPKcSsEEESaIS7_EEESaISA_EE5beginEv
_ZNKSt6vectorISt4pairIlS_ISt9sub_matchIN9__gnu_cxx17__normal_iteratorIPKcSsEEESaIS7_EEESaISA_EE5emptyEv
_ZNKSt6vectorISt4pairIlS_ISt9sub_matchIN9__gnu_cxx17__normal_iteratorIPKcSsEEESaIS7_EEESaISA_EE8max_sizeEv
_ZNKSt6vectorISt9sub_matchIN9__gnu_cxx17__normal_iteratorIPKcSsEEESaIS6_EE12_M_check_lenEmS4_
_ZNKSt6vectorISt9sub_matchIN9__gnu_cxx17__normal_iteratorIPKcSsEEESaIS6_EE3endEv
_ZNKSt6vectorISt9sub_matchIN9__gnu_cxx17__normal_iteratorIPKcSsEEESaIS6_EE4sizeEv
_ZNKSt6vectorISt9sub_matchIN9__gnu_cxx17__normal_iteratorIPKcSsEEESaIS6_EE5beginEv
_ZNKSt6vectorISt9sub_matchIN9__gnu_cxx17__normal_iteratorIPKcSsEEESaIS6_EE8capacityEv
_ZNKSt6vectorISt9sub_matchIN9__gnu_cxx17__normal_iteratorIPKcSsEEESaIS6_EE8max_sizeEv
_ZNKSt8__detail9_ExecutorIN9__gnu_cxx17__normal_iteratorIPKcSsEESaISt9sub_matchIS5_EESt12regex_traitsIcELb0EE10_M_is_wordEc
_ZNKSt8__detail9_ExecutorIN9__gnu_cxx17__normal_iteratorIPKcSsEESaISt9sub_matchIS5_EESt12regex_traitsIcELb0EE11_M_at_beginEv
_ZNKSt8__detail9_ExecutorIN9__gnu_cxx17__normal_iteratorIPKcSsEESaISt9sub_matchIS5_EESt12regex_traitsIcELb0EE16_M_word_boundaryENS_6_StateISA_EE
_ZNKSt8__detail9_ExecutorIN9__gnu_cxx17__normal_iteratorIPKcSsEESaISt9sub_matchIS5_EESt12regex_traitsIcELb0EE9_M_at_endEv
_ZNKSt8__detail9_ExecutorIN9__gnu_cxx17__normal_iteratorIPKcSsEESaISt9sub_matchIS5_EESt12regex_traitsIcELb1EE10_M_is_wordEc
_ZNKSt8__detail9_ExecutorIN9__gnu_cxx17__normal_iteratorIPKcSsEESaISt9sub_matchIS5_EESt12regex_traitsIcELb1EE11_M_at_beginEv
_ZNKSt8__detail9_ExecutorIN9__gnu_cxx17__normal_iteratorIPKcSsEESaISt9sub_matchIS5_EESt12regex_traitsIcELb1EE16_M_word_boundaryENS_6_StateISA_EE
_ZNKSt8__detail9_ExecutorIN9__gnu_cxx17__normal_iteratorIPKcSsEESaISt9sub_matchIS5_EESt12regex_traitsIcELb1EE9_M_at_endEv
_ZNKSt8functionIFvRKN8CGameRes8ResStateEEEclES3_
_ZNKSt9_Any_data9_M_accessIPSt5_BindIFSt7_Mem_fnIMN7cocos2d11MeshCommandEFvPNS3_11EventCustomEEEPS4_St12_PlaceholderILi1EEEEEERKT_v
_ZNKSt9_Any_data9_M_accessIPSt5_BindIFSt7_Mem_fnIMN7cocos2d11MeshCommandEFvPNS3_9GLProgramEPNS3_7UniformEEEPS4_St12_PlaceholderILi1EESD_ILi2EEEEEERKT_v
_ZNKSt9_Any_data9_M_accessIPSt5_BindIFSt7_Mem_fnIMN7cocos2d12TextureAtlasEFvPNS3_11EventCustomEEEPS4_St12_PlaceholderILi1EEEEEERKT_v
_ZNKSt9_Any_data9_M_accessIPSt5_BindIFSt7_Mem_fnIMN7cocos2d13RenderTextureEFvPNS3_11EventCustomEEEPS4_St12_PlaceholderILi1EEEEEERKT_v
_ZNKSt9_Any_data9_M_accessIPSt5_BindIFSt7_Mem_fnIMN7cocos2d15EventDispatcherEFviRKSsEEPS4_St12_PlaceholderILi1EESB_ILi2EEEEEERKT_v
_ZNKSt9_Any_data9_M_accessIPSt5_BindIFSt7_Mem_fnIMN7cocos2d15TransitionSceneEFvvEEPNS3_15TransitionFlipXEEEEERKT_v
_ZNKSt9_Any_data9_M_accessIPSt5_BindIFSt7_Mem_fnIMN7cocos2d15TransitionSceneEFvvEEPNS3_15TransitionFlipYEEEEERKT_v
_ZNKSt9_Any_data9_M_accessIPSt5_BindIFSt7_Mem_fnIMN7cocos2d15TransitionSceneEFvvEEPNS3_19TransitionZoomFlipXEEEEERKT_v
_ZNKSt9_Any_data9_M_accessIPSt5_BindIFSt7_Mem_fnIMN7cocos2d15TransitionSceneEFvvEEPNS3_19TransitionZoomFlipYEEEEERKT_v
_ZNKSt9_Any_data9_M_accessIPSt5_BindIFSt7_Mem_fnIMN7cocos2d15TransitionSceneEFvvEEPNS3_20TransitionShrinkGrowEEEEERKT_v
_ZNKSt9_Any_data9_M_accessIPSt5_BindIFSt7_Mem_fnIMN7cocos2d15TransitionSceneEFvvEEPNS3_21TransitionFlipAngularEEEEERKT_v
_ZNKSt9_Any_data9_M_accessIPSt5_BindIFSt7_Mem_fnIMN7cocos2d15TransitionSceneEFvvEEPNS3_22TransitionTurnOffTilesEEEEERKT_v
_ZNKSt9_Any_data9_M_accessIPSt5_BindIFSt7_Mem_fnIMN7cocos2d15TransitionSceneEFvvEEPNS3_25TransitionZoomFlipAngularEEEEERKT_v
_ZNKSt9_Any_data9_M_accessIPSt5_BindIFSt7_Mem_fnIMN7cocos2d18ParticleSystemQuadEFvPNS3_11EventCustomEEEPS4_St12_PlaceholderILi1EEEEEERKT_v
_ZNKSt9_Any_data9_M_accessIPSt5_BindIFSt7_Mem_fnIMN7cocos2d2ui6LayoutEFiNS4_6Widget14FocusDirectionEPS6_EEPS5_St12_PlaceholderILi1EESD_ILi2EEEEEERKT_v
_ZNKSt9_Any_data9_M_accessIPSt5_BindIFSt7_Mem_fnIMN7cocos2d2ui6Widget25FocusNavigationControllerEFvNS3_13EventKeyboard7KeyCodeEPNS3_5EventEEEPS6_St12_PlaceholderILi1EESF_ILi2EEEEEERKT_v
_ZNKSt9_Any_data9_M_accessIPSt5_BindIFSt7_Mem_fnIMN7cocos2d2ui6WidgetEFbPNS3_5TouchEPNS3_5EventEEEPS5_St12_PlaceholderILi1EESE_ILi2EEEEEERKT_v
_ZNKSt9_Any_data9_M_accessIPSt5_BindIFSt7_Mem_fnIMN7cocos2d2ui6WidgetEFvPNS3_5TouchEPNS3_5EventEEEPS5_St12_PlaceholderILi1EESE_ILi2EEEEEERKT_v
_ZNKSt9_Any_data9_M_accessIPSt5_BindIFSt7_Mem_fnIMN7cocos2d2ui6WidgetEFvPS5_S6_EES6_St12_PlaceholderILi1EESA_ILi2EEEEEERKT_v
_ZNKSt9_Any_data9_M_accessIPSt5_BindIFSt7_Mem_fnIMN7cocos2d5LayerEFbPNS3_5TouchEPNS3_5EventEEEPS4_St12_PlaceholderILi1EESD_ILi2EEEEEERKT_v
_ZNKSt9_Any_data9_M_accessIPSt5_BindIFSt7_Mem_fnIMN7cocos2d5LayerEFvNS3_13EventKeyboard7KeyCodeEPNS3_5EventEEEPS4_St12_PlaceholderILi1EESD_ILi2EEEEEERKT_v
_ZNKSt9_Any_data9_M_accessIPSt5_BindIFSt7_Mem_fnIMN7cocos2d5LayerEFvPNS3_12AccelerationEPNS3_5EventEEEPS4_St12_PlaceholderILi1EESD_ILi2EEEEEERKT_v
_ZNKSt9_Any_data9_M_accessIPSt5_BindIFSt7_Mem_fnIMN7cocos2d5LayerEFvPNS3_5TouchEPNS3_5EventEEEPS4_St12_PlaceholderILi1EESD_ILi2EEEEEERKT_v
_ZNKSt9_Any_data9_M_accessIPSt5_BindIFSt7_Mem_fnIMN7cocos2d5LayerEFvRKSt6vectorIPNS3_5TouchESaIS7_EEPNS3_5EventEEEPS4_St12_PlaceholderILi1EESI_ILi2EEEEEERKT_v
_ZNKSt9_Any_data9_M_accessIPSt5_BindIFSt7_Mem_fnIMN7cocos2d5SceneEFvPNS3_11EventCustomEEEPS4_St12_PlaceholderILi1EEEEEERKT_v
_ZNKSt9_Any_data9_M_accessIPSt5_BindIFSt7_Mem_fnIMN7cocos2d7ConsoleEFviEEPS4_St12_PlaceholderILi1EEEEEERKT_v
_ZNKSt9_Any_data9_M_accessIPSt5_BindIFSt7_Mem_fnIMN7cocos2d7ConsoleEFviRKSsEEPS4_St12_PlaceholderILi1EESB_ILi2EEEEEERKT_v
_ZNKSt9_Any_data9_M_accessIPSt5_BindIFSt7_Mem_fnIMN7cocos2d8CSLoaderEFPNS3_4NodeERKN9rapidjson12GenericValueINS7_4UTF8IcEENS7_19MemoryPoolAllocatorINS7_12CrtAllocatorEEEEEEEPS4_St12_PlaceholderILi1EEEEEERKT_v
_ZNKSt9_Any_data9_M_accessIPSt5_BindIFSt7_Mem_fnIMN7cocos2d8CSLoaderEFPNS3_9ComponentERKN9rapidjson12GenericValueINS7_4UTF8IcEENS7_19MemoryPoolAllocatorINS7_12CrtAllocatorEEEEEEEPS4_St12_PlaceholderILi1EEEEEERKT_v
_ZNKSt9_Any_data9_M_accessIPSt5_BindIFSt7_Mem_fnIMN7cocos2d9FontAtlasEFvPNS3_11EventCustomEEEPS4_St12_PlaceholderILi1EEEEEERKT_v
_ZNKSt9_Any_data9_M_accessIPSt5_BindIFSt7_Mem_fnIMN7cocos2d9extension10ScrollViewEFbPNS3_5TouchEPNS3_5EventEEEPS5_St12_PlaceholderILi1EESE_ILi2EEEEEERKT_v
_ZNKSt9_Any_data9_M_accessIPSt5_BindIFSt7_Mem_fnIMN7cocos2d9extension10ScrollViewEFvPNS3_4NodeEEEPS5_St12_PlaceholderILi1EEEEEERKT_v
_ZNKSt9_Any_data9_M_accessIPSt5_BindIFSt7_Mem_fnIMN7cocos2d9extension10ScrollViewEFvPNS3_5TouchEPNS3_5EventEEEPS5_St12_PlaceholderILi1EESE_ILi2EEEEEERKT_v
_ZNSaISt4pairIlSt6vectorISt9sub_matchIN9__gnu_cxx17__normal_iteratorIPKcSsEEESaIS7_EEEEC1ERKSB_
_ZNSaISt4pairIlSt6vectorISt9sub_matchIN9__gnu_cxx17__normal_iteratorIPKcSsEEESaIS7_EEEEC1Ev
_ZNSaISt4pairIlSt6vectorISt9sub_matchIN9__gnu_cxx17__normal_iteratorIPKcSsEEESaIS7_EEEEC2ERKSB_
_ZNSaISt4pairIlSt6vectorISt9sub_matchIN9__gnu_cxx17__normal_iteratorIPKcSsEEESaIS7_EEEEC2Ev
_ZNSaISt4pairIlSt6vectorISt9sub_matchIN9__gnu_cxx17__normal_iteratorIPKcSsEEESaIS7_EEEED1Ev
_ZNSaISt4pairIlSt6vectorISt9sub_matchIN9__gnu_cxx17__normal_iteratorIPKcSsEEESaIS7_EEEED2Ev
_ZNSaISt9sub_matchIN9__gnu_cxx17__normal_iteratorIPKcSsEEEEC1ERKS6_
_ZNSaISt9sub_matchIN9__gnu_cxx17__normal_iteratorIPKcSsEEEEC1Ev
_ZNSaISt9sub_matchIN9__gnu_cxx17__normal_iteratorIPKcSsEEEEC2ERKS6_
_ZNSaISt9sub_matchIN9__gnu_cxx17__normal_iteratorIPKcSsEEEEC2Ev
_ZNSaISt9sub_matchIN9__gnu_cxx17__normal_iteratorIPKcSsEEEED1Ev
_ZNSaISt9sub_matchIN9__gnu_cxx17__normal_iteratorIPKcSsEEEED2Ev
_ZNSbIDsSt11char_traitsIDsESaIDsEE12_S_constructIN9__gnu_cxx17__normal_iteratorIPDsSt6vectorIDsS1_EEEEES6_T_SA_RKS1_
_ZNSbIDsSt11char_traitsIDsESaIDsEE12_S_constructIN9__gnu_cxx17__normal_iteratorIPDsSt6vectorIDsS1_EEEEES6_T_SA_RKS1_St20forward_iterator_tag
_ZNSbIDsSt11char_traitsIDsESaIDsEE13_S_copy_charsIN9__gnu_cxx17__normal_iteratorIPDsSt6vectorIDsS1_EEEEEvS6_T_SA_
_ZNSbIDsSt11char_traitsIDsESaIDsEE16_S_construct_auxIN9__gnu_cxx17__normal_iteratorIPDsSt6vectorIDsS1_EEEEES6_T_SA_RKS1_St12__false_type
_ZNSbIDsSt11char_traitsIDsESaIDsEEC1IN9__gnu_cxx17__normal_iteratorIPDsSt6vectorIDsS1_EEEEET_SA_RKS1_
_ZNSbIDsSt11char_traitsIDsESaIDsEEC2IN9__gnu_cxx17__normal_iteratorIPDsSt6vectorIDsS1_EEEEET_SA_RKS1_
_ZNSs12_S_constructIN9__gnu_cxx17__normal_iteratorIPKcSsEEEEPcT_S6_RKSaIcE
_ZNSs12_S_constructIN9__gnu_cxx17__normal_iteratorIPKcSsEEEEPcT_S6_RKSaIcESt20forward_iterator_tag
_ZNSs12_S_constructIN9__gnu_cxx17__normal_iteratorIPcSsEEEES2_T_S4_RKSaIcE
_ZNSs16_S_construct_auxIN9__gnu_cxx17__normal_iteratorIPKcSsEEEEPcT_S6_RKSaIcESt12__false_type
_ZNSs16_S_construct_auxIN9__gnu_cxx17__normal_iteratorIPcSsEEEES2_T_S4_RKSaIcESt12__false_type
_ZNSs19_M_replace_dispatchIiEERSsN9__gnu_cxx17__normal_iteratorIPcSsEES4_T_S5_St11__true_type
_ZNSs7replaceIiEERSsN9__gnu_cxx17__normal_iteratorIPcSsEES4_T_S5_
_ZNSsC1IN9__gnu_cxx17__normal_iteratorIPKcSsEEEET_S5_RKSaIcE
_ZNSsC2IN9__gnu_cxx17__normal_iteratorIPKcSsEEEET_S5_RKSaIcE
_ZNSt10_Head_baseILm0EPNSt8__detail9_ExecutorIN9__gnu_cxx17__normal_iteratorIPKcSsEESaISt9sub_matchIS6_EESt12regex_traitsIcELb0EEELb0EE7_M_headERKSE_
_ZNSt10_Head_baseILm0EPNSt8__detail9_ExecutorIN9__gnu_cxx17__normal_iteratorIPKcSsEESaISt9sub_matchIS6_EESt12regex_traitsIcELb0EEELb0EE7_M_headERSE_
_ZNSt10_Head_baseILm0EPNSt8__detail9_ExecutorIN9__gnu_cxx17__normal_iteratorIPKcSsEESaISt9sub_matchIS6_EESt12regex_traitsIcELb0EEELb0EEC1IRSD_vEEOT_
_ZNSt10_Head_baseILm0EPNSt8__detail9_ExecutorIN9__gnu_cxx17__normal_iteratorIPKcSsEESaISt9sub_matchIS6_EESt12regex_traitsIcELb0EEELb0EEC2IRSD_vEEOT_
_ZNSt10_Head_baseILm0EPNSt8__detail9_ExecutorIN9__gnu_cxx17__normal_iteratorIPKcSsEESaISt9sub_matchIS6_EESt12regex_traitsIcELb1EEELb0EE7_M_headERKSE_
_ZNSt10_Head_baseILm0EPNSt8__detail9_ExecutorIN9__gnu_cxx17__normal_iteratorIPKcSsEESaISt9sub_matchIS6_EESt12regex_traitsIcELb1EEELb0EE7_M_headERSE_
_ZNSt10_Head_baseILm0EPNSt8__detail9_ExecutorIN9__gnu_cxx17__normal_iteratorIPKcSsEESaISt9sub_matchIS6_EESt12regex_traitsIcELb1EEELb0EEC1IRSD_vEEOT_
_ZNSt10_Head_baseILm0EPNSt8__detail9_ExecutorIN9__gnu_cxx17__normal_iteratorIPKcSsEESaISt9sub_matchIS6_EESt12regex_traitsIcELb1EEELb0EEC2IRSD_vEEOT_
_ZNSt10_Head_baseILm0EPSt6vectorISt4pairIlS0_ISt9sub_matchIN9__gnu_cxx17__normal_iteratorIPKcSsEEESaIS8_EEESaISB_EELb0EE7_M_headERKSF_
_ZNSt10_Head_baseILm0EPSt6vectorISt4pairIlS0_ISt9sub_matchIN9__gnu_cxx17__normal_iteratorIPKcSsEEESaIS8_EEESaISB_EELb0EE7_M_headERSF_
_ZNSt10_Head_baseILm0EPSt6vectorISt4pairIlS0_ISt9sub_matchIN9__gnu_cxx17__normal_iteratorIPKcSsEEESaIS8_EEESaISB_EELb0EEC1IRSE_vEEOT_
_ZNSt10_Head_baseILm0EPSt6vectorISt4pairIlS0_ISt9sub_matchIN9__gnu_cxx17__normal_iteratorIPKcSsEEESaIS8_EEESaISB_EELb0EEC2IRSE_vEEOT_
_ZNSt10_Head_baseILm1ESt12_PlaceholderILi1EELb1EE7_M_headERS2_
_ZNSt10_Head_baseILm1ESt12_PlaceholderILi1EELb1EEC1ERKS1_
_ZNSt10_Head_baseILm1ESt12_PlaceholderILi1EELb1EEC1IS1_vEEOT_
_ZNSt10_Head_baseILm1ESt12_PlaceholderILi1EELb1EEC2ERKS1_
_ZNSt10_Head_baseILm1ESt12_PlaceholderILi1EELb1EEC2IS1_vEEOT_
_ZNSt10_Head_baseILm1ESt14default_deleteINSt8__detail9_ExecutorIN9__gnu_cxx17__normal_iteratorIPKcSsEESaISt9sub_matchIS7_EESt12regex_traitsIcELb0EEEELb1EE7_M_headERSF_
_ZNSt10_Head_baseILm1ESt14default_deleteINSt8__detail9_ExecutorIN9__gnu_cxx17__normal_iteratorIPKcSsEESaISt9sub_matchIS7_EESt12regex_traitsIcELb0EEEELb1EEC1ISE_vEEOT_
_ZNSt10_Head_baseILm1ESt14default_deleteINSt8__detail9_ExecutorIN9__gnu_cxx17__normal_iteratorIPKcSsEESaISt9sub_matchIS7_EESt12regex_traitsIcELb0EEEELb1EEC2ISE_vEEOT_
_ZNSt10_Head_baseILm1ESt14default_deleteINSt8__detail9_ExecutorIN9__gnu_cxx17__normal_iteratorIPKcSsEESaISt9sub_matchIS7_EESt12regex_traitsIcELb1EEEELb1EE7_M_headERSF_
_ZNSt10_Head_baseILm1ESt14default_deleteINSt8__detail9_ExecutorIN9__gnu_cxx17__normal_iteratorIPKcSsEESaISt9sub_matchIS7_EESt12regex_traitsIcELb1EEEELb1EEC1ISE_vEEOT_
_ZNSt10_Head_baseILm1ESt14default_deleteINSt8__detail9_ExecutorIN9__gnu_cxx17__normal_iteratorIPKcSsEESaISt9sub_matchIS7_EESt12regex_traitsIcELb1EEEELb1EEC2ISE_vEEOT_
_ZNSt10_Head_baseILm1ESt14default_deleteISt6vectorISt4pairIlS1_ISt9sub_matchIN9__gnu_cxx17__normal_iteratorIPKcSsEEESaIS9_EEESaISC_EEELb1EE7_M_headERSG_
_ZNSt10_Head_baseILm1ESt14default_deleteISt6vectorISt4pairIlS1_ISt9sub_matchIN9__gnu_cxx17__normal_iteratorIPKcSsEEESaIS9_EEESaISC_EEELb1EEC1ISF_vEEOT_
_ZNSt10_Head_baseILm1ESt14default_deleteISt6vectorISt4pairIlS1_ISt9sub_matchIN9__gnu_cxx17__normal_iteratorIPKcSsEEESaIS9_EEESaISC_EEELb1EEC2ISF_vEEOT_
_ZNSt10_Head_baseILm2ESt12_PlaceholderILi2EELb1EE7_M_headERS2_
_ZNSt10_Head_baseILm2ESt12_PlaceholderILi2EELb1EEC1ERKS1_
_ZNSt10_Head_baseILm2ESt12_PlaceholderILi2EELb1EEC1IS1_vEEOT_
_ZNSt10_Head_baseILm2ESt12_PlaceholderILi2EELb1EEC2ERKS1_
_ZNSt10_Head_baseILm2ESt12_PlaceholderILi2EELb1EEC2IS1_vEEOT_
_ZNSt10_Iter_baseIN9__gnu_cxx17__normal_iteratorIPDsSt6vectorIDsSaIDsEEEELb0EE7_S_baseES6_
_ZNSt10_Iter_baseIN9__gnu_cxx17__normal_iteratorIPDsSt6vectorIDsSaIDsEEEELb1EE7_S_baseES6_
_ZNSt10_Iter_baseIN9__gnu_cxx17__normal_iteratorIPKSsSt6vectorISsSaISsEEEELb0EE7_S_baseES7_
_ZNSt10_Iter_baseIN9__gnu_cxx17__normal_iteratorIPKSsSt6vectorISsSaISsEEEELb1EE7_S_baseES7_
_ZNSt10_Iter_baseIN9__gnu_cxx17__normal_iteratorIPKSt9sub_matchINS1_IPKcSsEEESt6vectorIS6_SaIS6_EEEELb0EE7_S_baseESC_
_ZNSt10_Iter_baseIN9__gnu_cxx17__normal_iteratorIPKSt9sub_matchINS1_IPKcSsEEESt6vectorIS6_SaIS6_EEEELb1EE7_S_baseESC_
_ZNSt10_Iter_baseIN9__gnu_cxx17__normal_iteratorIPSsSt6vectorISsSaISsEEEELb0EE7_S_baseES6_
_ZNSt10_Iter_baseIN9__gnu_cxx17__normal_iteratorIPSsSt6vectorISsSaISsEEEELb1EE7_S_baseES6_
_ZNSt10_Iter_baseIN9__gnu_cxx17__normal_iteratorIPSt9sub_matchINS1_IPKcSsEEESt6vectorIS6_SaIS6_EEEELb1EE7_S_baseESB_
_ZNSt10_Iter_baseIN9__gnu_cxx17__normal_iteratorIPcSt6vectorIcSaIcEEEELb1EE7_S_baseES6_
_ZNSt10_Iter_baseIN9__gnu_cxx17__normal_iteratorIPfSt6vectorIfSaIfEEEELb0EE7_S_baseES6_
_ZNSt10_Iter_baseIN9__gnu_cxx17__normal_iteratorIPfSt6vectorIfSaIfEEEELb1EE7_S_baseES6_
_ZNSt10_Iter_baseIN9__gnu_cxx17__normal_iteratorIPiSt6vectorIiSaIiEEEELb0EE7_S_baseES6_
_ZNSt10_Iter_baseIN9__gnu_cxx17__normal_iteratorIPiSt6vectorIiSaIiEEEELb1EE7_S_baseES6_
_ZNSt10_Iter_baseIN9__gnu_cxx17__normal_iteratorIPtSt6vectorItSaItEEEELb1EE7_S_baseES6_
_ZNSt10_Iter_baseIPSt9sub_matchIN9__gnu_cxx17__normal_iteratorIPKcSsEEELb0EE7_S_baseES7_
_ZNSt10unique_ptrINSt8__detail9_ExecutorIN9__gnu_cxx17__normal_iteratorIPKcSsEESaISt9sub_matchIS6_EESt12regex_traitsIcELb0EEESt14default_deleteISC_EE11get_deleterEv
_ZNSt10unique_ptrINSt8__detail9_ExecutorIN9__gnu_cxx17__normal_iteratorIPKcSsEESaISt9sub_matchIS6_EESt12regex_traitsIcELb0EEESt14default_deleteISC_EEC1EPSC_
_ZNSt10unique_ptrINSt8__detail9_ExecutorIN9__gnu_cxx17__normal_iteratorIPKcSsEESaISt9sub_matchIS6_EESt12regex_traitsIcELb0EEESt14default_deleteISC_EEC2EPSC_
_ZNSt10unique_ptrINSt8__detail9_ExecutorIN9__gnu_cxx17__normal_iteratorIPKcSsEESaISt9sub_matchIS6_EESt12regex_traitsIcELb0EEESt14default_deleteISC_EED1Ev
_ZNSt10unique_ptrINSt8__detail9_ExecutorIN9__gnu_cxx17__normal_iteratorIPKcSsEESaISt9sub_matchIS6_EESt12regex_traitsIcELb0EEESt14default_deleteISC_EED2Ev
_ZNSt10unique_ptrINSt8__detail9_ExecutorIN9__gnu_cxx17__normal_iteratorIPKcSsEESaISt9sub_matchIS6_EESt12regex_traitsIcELb1EEESt14default_deleteISC_EE11get_deleterEv
_ZNSt10unique_ptrINSt8__detail9_ExecutorIN9__gnu_cxx17__normal_iteratorIPKcSsEESaISt9sub_matchIS6_EESt12regex_traitsIcELb1EEESt14default_deleteISC_EEC1EPSC_
_ZNSt10unique_ptrINSt8__detail9_ExecutorIN9__gnu_cxx17__normal_iteratorIPKcSsEESaISt9sub_matchIS6_EESt12regex_traitsIcELb1EEESt14default_deleteISC_EEC2EPSC_
_ZNSt10unique_ptrINSt8__detail9_ExecutorIN9__gnu_cxx17__normal_iteratorIPKcSsEESaISt9sub_matchIS6_EESt12regex_traitsIcELb1EEESt14default_deleteISC_EED1Ev
_ZNSt10unique_ptrINSt8__detail9_ExecutorIN9__gnu_cxx17__normal_iteratorIPKcSsEESaISt9sub_matchIS6_EESt12regex_traitsIcELb1EEESt14default_deleteISC_EED2Ev
_ZNSt10unique_ptrISt6vectorISt4pairIlS0_ISt9sub_matchIN9__gnu_cxx17__normal_iteratorIPKcSsEEESaIS8_EEESaISB_EESt14default_deleteISD_EE11get_deleterEv
_ZNSt10unique_ptrISt6vectorISt4pairIlS0_ISt9sub_matchIN9__gnu_cxx17__normal_iteratorIPKcSsEEESaIS8_EEESaISB_EESt14default_deleteISD_EEC1EPSD_
_ZNSt10unique_ptrISt6vectorISt4pairIlS0_ISt9sub_matchIN9__gnu_cxx17__normal_iteratorIPKcSsEEESaIS8_EEESaISB_EESt14default_deleteISD_EEC2EPSD_
_ZNSt10unique_ptrISt6vectorISt4pairIlS0_ISt9sub_matchIN9__gnu_cxx17__normal_iteratorIPKcSsEEESaIS8_EEESaISB_EESt14default_deleteISD_EED1Ev
_ZNSt10unique_ptrISt6vectorISt4pairIlS0_ISt9sub_matchIN9__gnu_cxx17__normal_iteratorIPKcSsEEESaIS8_EEESaISB_EESt14default_deleteISD_EED2Ev
_ZNSt11_Tuple_implILm0EJPNSt8__detail9_ExecutorIN9__gnu_cxx17__normal_iteratorIPKcSsEESaISt9sub_matchIS6_EESt12regex_traitsIcELb0EEESt14default_deleteISC_EEE7_M_headERKSG_
_ZNSt11_Tuple_implILm0EJPNSt8__detail9_ExecutorIN9__gnu_cxx17__normal_iteratorIPKcSsEESaISt9sub_matchIS6_EESt12regex_traitsIcELb0EEESt14default_deleteISC_EEE7_M_headERSG_
_ZNSt11_Tuple_implILm0EJPNSt8__detail9_ExecutorIN9__gnu_cxx17__normal_iteratorIPKcSsEESaISt9sub_matchIS6_EESt12regex_traitsIcELb0EEESt14default_deleteISC_EEEC1IRSD_JSF_EvEEOT_DpOT0_
_ZNSt11_Tuple_implILm0EJPNSt8__detail9_ExecutorIN9__gnu_cxx17__normal_iteratorIPKcSsEESaISt9sub_matchIS6_EESt12regex_traitsIcELb0EEESt14default_deleteISC_EEEC2IRSD_JSF_EvEEOT_DpOT0_
_ZNSt11_Tuple_implILm0EJPNSt8__detail9_ExecutorIN9__gnu_cxx17__normal_iteratorIPKcSsEESaISt9sub_matchIS6_EESt12regex_traitsIcELb1EEESt14default_deleteISC_EEE7_M_headERKSG_
_ZNSt11_Tuple_implILm0EJPNSt8__detail9_ExecutorIN9__gnu_cxx17__normal_iteratorIPKcSsEESaISt9sub_matchIS6_EESt12regex_traitsIcELb1EEESt14default_deleteISC_EEE7_M_headERSG_
_ZNSt11_Tuple_implILm0EJPNSt8__detail9_ExecutorIN9__gnu_cxx17__normal_iteratorIPKcSsEESaISt9sub_matchIS6_EESt12regex_traitsIcELb1EEESt14default_deleteISC_EEEC1IRSD_JSF_EvEEOT_DpOT0_
_ZNSt11_Tuple_implILm0EJPNSt8__detail9_ExecutorIN9__gnu_cxx17__normal_iteratorIPKcSsEESaISt9sub_matchIS6_EESt12regex_traitsIcELb1EEESt14default_deleteISC_EEEC2IRSD_JSF_EvEEOT_DpOT0_
_ZNSt11_Tuple_implILm0EJPSt6vectorISt4pairIlS0_ISt9sub_matchIN9__gnu_cxx17__normal_iteratorIPKcSsEEESaIS8_EEESaISB_EESt14default_deleteISD_EEE7_M_headERKSH_
_ZNSt11_Tuple_implILm0EJPSt6vectorISt4pairIlS0_ISt9sub_matchIN9__gnu_cxx17__normal_iteratorIPKcSsEEESaIS8_EEESaISB_EESt14default_deleteISD_EEE7_M_headERSH_
_ZNSt11_Tuple_implILm0EJPSt6vectorISt4pairIlS0_ISt9sub_matchIN9__gnu_cxx17__normal_iteratorIPKcSsEEESaIS8_EEESaISB_EESt14default_deleteISD_EEEC1IRSE_JSG_EvEEOT_DpOT0_
_ZNSt11_Tuple_implILm0EJPSt6vectorISt4pairIlS0_ISt9sub_matchIN9__gnu_cxx17__normal_iteratorIPKcSsEEESaIS8_EEESaISB_EESt14default_deleteISD_EEEC2IRSE_JSG_EvEEOT_DpOT0_
_ZNSt11_Tuple_implILm1EJSt12_PlaceholderILi1EEEE7_M_headERS2_
_ZNSt11_Tuple_implILm1EJSt12_PlaceholderILi1EEEE7_M_tailERS2_
_ZNSt11_Tuple_implILm1EJSt12_PlaceholderILi1EEEEC1EOS2_
_ZNSt11_Tuple_implILm1EJSt12_PlaceholderILi1EEEEC1ERKS1_
_ZNSt11_Tuple_implILm1EJSt12_PlaceholderILi1EEEEC2EOS2_
_ZNSt11_Tuple_implILm1EJSt12_PlaceholderILi1EEEEC2ERKS1_
_ZNSt11_Tuple_implILm1EJSt12_PlaceholderILi1EES0_ILi2EEEE7_M_headERS3_
_ZNSt11_Tuple_implILm1EJSt12_PlaceholderILi1EES0_ILi2EEEE7_M_tailERS3_
_ZNSt11_Tuple_implILm1EJSt12_PlaceholderILi1EES0_ILi2EEEEC1EOS3_
_ZNSt11_Tuple_implILm1EJSt12_PlaceholderILi1EES0_ILi2EEEEC1ERKS1_RKS2_
_ZNSt11_Tuple_implILm1EJSt12_PlaceholderILi1EES0_ILi2EEEEC2EOS3_
_ZNSt11_Tuple_implILm1EJSt12_PlaceholderILi1EES0_ILi2EEEEC2ERKS1_RKS2_
_ZNSt11_Tuple_implILm1EJSt14default_deleteINSt8__detail9_ExecutorIN9__gnu_cxx17__normal_iteratorIPKcSsEESaISt9sub_matchIS7_EESt12regex_traitsIcELb0EEEEEE7_M_headERSF_
_ZNSt11_Tuple_implILm1EJSt14default_deleteINSt8__detail9_ExecutorIN9__gnu_cxx17__normal_iteratorIPKcSsEESaISt9sub_matchIS7_EESt12regex_traitsIcELb0EEEEEEC1ISE_JEvEEOT_DpOT0_
_ZNSt11_Tuple_implILm1EJSt14default_deleteINSt8__detail9_ExecutorIN9__gnu_cxx17__normal_iteratorIPKcSsEESaISt9sub_matchIS7_EESt12regex_traitsIcELb0EEEEEEC2ISE_JEvEEOT_DpOT0_
_ZNSt11_Tuple_implILm1EJSt14default_deleteINSt8__detail9_ExecutorIN9__gnu_cxx17__normal_iteratorIPKcSsEESaISt9sub_matchIS7_EESt12regex_traitsIcELb1EEEEEE7_M_headERSF_
_ZNSt11_Tuple_implILm1EJSt14default_deleteINSt8__detail9_ExecutorIN9__gnu_cxx17__normal_iteratorIPKcSsEESaISt9sub_matchIS7_EESt12regex_traitsIcELb1EEEEEEC1ISE_JEvEEOT_DpOT0_
_ZNSt11_Tuple_implILm1EJSt14default_deleteINSt8__detail9_ExecutorIN9__gnu_cxx17__normal_iteratorIPKcSsEESaISt9sub_matchIS7_EESt12regex_traitsIcELb1EEEEEEC2ISE_JEvEEOT_DpOT0_
_ZNSt11_Tuple_implILm1EJSt14default_deleteISt6vectorISt4pairIlS1_ISt9sub_matchIN9__gnu_cxx17__normal_iteratorIPKcSsEEESaIS9_EEESaISC_EEEEE7_M_headERSG_
_ZNSt11_Tuple_implILm1EJSt14default_deleteISt6vectorISt4pairIlS1_ISt9sub_matchIN9__gnu_cxx17__normal_iteratorIPKcSsEEESaIS9_EEESaISC_EEEEEC1ISF_JEvEEOT_DpOT0_
_ZNSt11_Tuple_implILm1EJSt14default_deleteISt6vectorISt4pairIlS1_ISt9sub_matchIN9__gnu_cxx17__normal_iteratorIPKcSsEEESaIS9_EEESaISC_EEEEEC2ISF_JEvEEOT_DpOT0_
_ZNSt11_Tuple_implILm2EJSt12_PlaceholderILi2EEEE7_M_headERS2_
_ZNSt11_Tuple_implILm2EJSt12_PlaceholderILi2EEEE7_M_tailERS2_
_ZNSt11_Tuple_implILm2EJSt12_PlaceholderILi2EEEEC1EOS2_
_ZNSt11_Tuple_implILm2EJSt12_PlaceholderILi2EEEEC1ERKS1_
_ZNSt11_Tuple_implILm2EJSt12_PlaceholderILi2EEEEC2EOS2_
_ZNSt11_Tuple_implILm2EJSt12_PlaceholderILi2EEEEC2ERKS1_
_ZNSt11__copy_moveILb0ELb0ESt26random_access_iterator_tagE8__copy_mIPKSt9sub_matchIN9__gnu_cxx17__normal_iteratorIPKcSsEEEPS9_EET0_T_SE_SD_
_ZNSt11__copy_moveILb0ELb0ESt26random_access_iterator_tagE8__copy_mIPSt9sub_matchIN9__gnu_cxx17__normal_iteratorIPKcSsEEESA_EET0_T_SC_SB_
_ZNSt11__copy_moveILb0ELb0ESt26random_access_iterator_tagE8__copy_mISt13_Bit_iteratorS3_EET0_T_S5_S4_
_ZNSt11__copy_moveILb0ELb0ESt26random_access_iterator_tagE8__copy_mISt19_Bit_const_iteratorSt13_Bit_iteratorEET0_T_S6_S5_
_ZNSt11__copy_moveILb1ELb1ESt26random_access_iterator_tagE8__copy_mIPN10cocostudio17DecorativeDisplayEEEPT_PKS6_S9_S7_
_ZNSt11basic_regexIcSt12regex_traitsIcEEC1IN9__gnu_cxx17__normal_iteratorIPKcSsEEEET_S9_NSt15regex_constants18syntax_option_typeE
_ZNSt11basic_regexIcSt12regex_traitsIcEEC2IN9__gnu_cxx17__normal_iteratorIPKcSsEEEET_S9_NSt15regex_constants18syntax_option_typeE
_ZNSt12_Destroy_auxILb0EE9__destroyIN9__gnu_cxx17__normal_iteratorIPN7cocos2d5ValueESt6vectorIS5_SaIS5_EEEEEEvT_SB_
_ZNSt12_Destroy_auxILb0EE9__destroyIN9__gnu_cxx17__normal_iteratorIPSsSt6vectorISsSaISsEEEEEEvT_S9_
_ZNSt12_Destroy_auxILb0EE9__destroyIPSt4pairIlSt6vectorISt9sub_matchIN9__gnu_cxx17__normal_iteratorIPKcSsEEESaISA_EEEEEvT_SF_
_ZNSt12_Destroy_auxILb1EE9__destroyIN9__gnu_cxx17__normal_iteratorIPPN10cocostudio12ActionObjectESt6vectorIS6_SaIS6_EEEEEEvT_SC_
_ZNSt12_Destroy_auxILb1EE9__destroyIN9__gnu_cxx17__normal_iteratorIPPN10cocostudio8timeline8TimelineESt6vectorIS7_SaIS7_EEEEEEvT_SD_
_ZNSt12_Destroy_auxILb1EE9__destroyIN9__gnu_cxx17__normal_iteratorIPPN10cocostudio9FrameDataESt6vectorIS6_SaIS6_EEEEEEvT_SC_
_ZNSt12_Destroy_auxILb1EE9__destroyIN9__gnu_cxx17__normal_iteratorIPPN7cocos2d11PhysicsBodyESt6vectorIS6_SaIS6_EEEEEEvT_SC_
_ZNSt12_Destroy_auxILb1EE9__destroyIN9__gnu_cxx17__normal_iteratorIPPN7cocos2d11SpriteFrameESt6vectorIS6_SaIS6_EEEEEEvT_SC_
_ZNSt12_Destroy_auxILb1EE9__destroyIN9__gnu_cxx17__normal_iteratorIPPN7cocos2d14AnimationFrameESt6vectorIS6_SaIS6_EEEEEEvT_SC_
_ZNSt12_Destroy_auxILb1EE9__destroyIN9__gnu_cxx17__normal_iteratorIPPN7cocos2d14TMXObjectGroupESt6vectorIS6_SaIS6_EEEEEEvT_SC_
_ZNSt12_Destroy_auxILb1EE9__destroyIN9__gnu_cxx17__normal_iteratorIPPN7cocos2d2ui6LayoutESt6vectorIS7_SaIS7_EEEEEEvT_SD_
_ZNSt12_Destroy_auxILb1EE9__destroyIN9__gnu_cxx17__normal_iteratorIPPN7cocos2d4NodeESt6vectorIS6_SaIS6_EEEEEEvT_SC_
_ZNSt12_Destroy_auxILb1EE9__destroyIN9__gnu_cxx17__normal_iteratorIPPN7cocos2d5TouchESt6vectorIS6_SaIS6_EEEEEEvT_SC_
_ZNSt12_Destroy_auxILb1EE9__destroyIN9__gnu_cxx17__normal_iteratorIPSt9sub_matchINS3_IPKcSsEEESt6vectorIS8_SaIS8_EEEEEEvT_SE_
_ZNSt12_Destroy_auxILb1EE9__destroyIPPN10cocostudio11DisplayDataEEEvT_S6_
_ZNSt12_Destroy_auxILb1EE9__destroyIPPN10cocostudio17DecorativeDisplayEEEvT_S6_
_ZNSt12_Destroy_auxILb1EE9__destroyIPPN7cocos2d14TMXTilesetInfoEEEvT_S6_
_ZNSt12_Destroy_auxILb1EE9__destroyIPSt9sub_matchIN9__gnu_cxx17__normal_iteratorIPKcSsEEEEEvT_SA_
_ZNSt12_Vector_baseISt4pairIlSt6vectorISt9sub_matchIN9__gnu_cxx17__normal_iteratorIPKcSsEEESaIS8_EEESaISB_EE11_M_allocateEm
_ZNSt12_Vector_baseISt4pairIlSt6vectorISt9sub_matchIN9__gnu_cxx17__normal_iteratorIPKcSsEEESaIS8_EEESaISB_EE12_Vector_impl12_M_swap_dataERSE_
_ZNSt12_Vector_baseISt4pairIlSt6vectorISt9sub_matchIN9__gnu_cxx17__normal_iteratorIPKcSsEEESaIS8_EEESaISB_EE12_Vector_implC1EOSC_
_ZNSt12_Vector_baseISt4pairIlSt6vectorISt9sub_matchIN9__gnu_cxx17__normal_iteratorIPKcSsEEESaIS8_EEESaISB_EE12_Vector_implC1Ev
_ZNSt12_Vector_baseISt4pairIlSt6vectorISt9sub_matchIN9__gnu_cxx17__normal_iteratorIPKcSsEEESaIS8_EEESaISB_EE12_Vector_implC2EOSC_
_ZNSt12_Vector_baseISt4pairIlSt6vectorISt9sub_matchIN9__gnu_cxx17__normal_iteratorIPKcSsEEESaIS8_EEESaISB_EE12_Vector_implC2Ev
_ZNSt12_Vector_baseISt4pairIlSt6vectorISt9sub_matchIN9__gnu_cxx17__normal_iteratorIPKcSsEEESaIS8_EEESaISB_EE12_Vector_implD1Ev
_ZNSt12_Vector_baseISt4pairIlSt6vectorISt9sub_matchIN9__gnu_cxx17__normal_iteratorIPKcSsEEESaIS8_EEESaISB_EE12_Vector_implD2Ev
_ZNSt12_Vector_baseISt4pairIlSt6vectorISt9sub_matchIN9__gnu_cxx17__normal_iteratorIPKcSsEEESaIS8_EEESaISB_EE13_M_deallocateEPSB_m
_ZNSt12_Vector_baseISt4pairIlSt6vectorISt9sub_matchIN9__gnu_cxx17__normal_iteratorIPKcSsEEESaIS8_EEESaISB_EE19_M_get_Tp_allocatorEv
_ZNSt12_Vector_baseISt4pairIlSt6vectorISt9sub_matchIN9__gnu_cxx17__normal_iteratorIPKcSsEEESaIS8_EEESaISB_EEC1EOSD_
_ZNSt12_Vector_baseISt4pairIlSt6vectorISt9sub_matchIN9__gnu_cxx17__normal_iteratorIPKcSsEEESaIS8_EEESaISB_EEC1Ev
_ZNSt12_Vector_baseISt4pairIlSt6vectorISt9sub_matchIN9__gnu_cxx17__normal_iteratorIPKcSsEEESaIS8_EEESaISB_EEC2EOSD_
_ZNSt12_Vector_baseISt4pairIlSt6vectorISt9sub_matchIN9__gnu_cxx17__normal_iteratorIPKcSsEEESaIS8_EEESaISB_EEC2Ev
_ZNSt12_Vector_baseISt4pairIlSt6vectorISt9sub_matchIN9__gnu_cxx17__normal_iteratorIPKcSsEEESaIS8_EEESaISB_EED1Ev
_ZNSt12_Vector_baseISt4pairIlSt6vectorISt9sub_matchIN9__gnu_cxx17__normal_iteratorIPKcSsEEESaIS8_EEESaISB_EED2Ev
_ZNSt12_Vector_baseISt9sub_matchIN9__gnu_cxx17__normal_iteratorIPKcSsEEESaIS6_EE11_M_allocateEm
_ZNSt12_Vector_baseISt9sub_matchIN9__gnu_cxx17__normal_iteratorIPKcSsEEESaIS6_EE12_Vector_impl12_M_swap_dataERS9_
_ZNSt12_Vector_baseISt9sub_matchIN9__gnu_cxx17__normal_iteratorIPKcSsEEESaIS6_EE12_Vector_implC1EOS7_
_ZNSt12_Vector_baseISt9sub_matchIN9__gnu_cxx17__normal_iteratorIPKcSsEEESaIS6_EE12_Vector_implC1ERKS7_
_ZNSt12_Vector_baseISt9sub_matchIN9__gnu_cxx17__normal_iteratorIPKcSsEEESaIS6_EE12_Vector_implC1Ev
_ZNSt12_Vector_baseISt9sub_matchIN9__gnu_cxx17__normal_iteratorIPKcSsEEESaIS6_EE12_Vector_implC2EOS7_
_ZNSt12_Vector_baseISt9sub_matchIN9__gnu_cxx17__normal_iteratorIPKcSsEEESaIS6_EE12_Vector_implC2ERKS7_
_ZNSt12_Vector_baseISt9sub_matchIN9__gnu_cxx17__normal_iteratorIPKcSsEEESaIS6_EE12_Vector_implC2Ev
_ZNSt12_Vector_baseISt9sub_matchIN9__gnu_cxx17__normal_iteratorIPKcSsEEESaIS6_EE12_Vector_implD1Ev
_ZNSt12_Vector_baseISt9sub_matchIN9__gnu_cxx17__normal_iteratorIPKcSsEEESaIS6_EE12_Vector_implD2Ev
_ZNSt12_Vector_baseISt9sub_matchIN9__gnu_cxx17__normal_iteratorIPKcSsEEESaIS6_EE13_M_deallocateEPS6_m
_ZNSt12_Vector_baseISt9sub_matchIN9__gnu_cxx17__normal_iteratorIPKcSsEEESaIS6_EE17_M_create_storageEm
_ZNSt12_Vector_baseISt9sub_matchIN9__gnu_cxx17__normal_iteratorIPKcSsEEESaIS6_EE19_M_get_Tp_allocatorEv
_ZNSt12_Vector_baseISt9sub_matchIN9__gnu_cxx17__normal_iteratorIPKcSsEEESaIS6_EEC1EOS8_
_ZNSt12_Vector_baseISt9sub_matchIN9__gnu_cxx17__normal_iteratorIPKcSsEEESaIS6_EEC1ERKS7_
_ZNSt12_Vector_baseISt9sub_matchIN9__gnu_cxx17__normal_iteratorIPKcSsEEESaIS6_EEC1EmRKS7_
_ZNSt12_Vector_baseISt9sub_matchIN9__gnu_cxx17__normal_iteratorIPKcSsEEESaIS6_EEC1Ev
_ZNSt12_Vector_baseISt9sub_matchIN9__gnu_cxx17__normal_iteratorIPKcSsEEESaIS6_EEC2EOS8_
_ZNSt12_Vector_baseISt9sub_matchIN9__gnu_cxx17__normal_iteratorIPKcSsEEESaIS6_EEC2ERKS7_
_ZNSt12_Vector_baseISt9sub_matchIN9__gnu_cxx17__normal_iteratorIPKcSsEEESaIS6_EEC2EmRKS7_
_ZNSt12_Vector_baseISt9sub_matchIN9__gnu_cxx17__normal_iteratorIPKcSsEEESaIS6_EEC2Ev
_ZNSt12_Vector_baseISt9sub_matchIN9__gnu_cxx17__normal_iteratorIPKcSsEEESaIS6_EED1Ev
_ZNSt12_Vector_baseISt9sub_matchIN9__gnu_cxx17__normal_iteratorIPKcSsEEESaIS6_EED2Ev
_ZNSt13match_resultsIN9__gnu_cxx17__normal_iteratorIPKcSsEESaISt9sub_matchIS4_EEEC1ERKS7_
_ZNSt13match_resultsIN9__gnu_cxx17__normal_iteratorIPKcSsEESaISt9sub_matchIS4_EEEC2ERKS7_
_ZNSt13match_resultsIN9__gnu_cxx17__normal_iteratorIPKcSsEESaISt9sub_matchIS4_EEED1Ev
_ZNSt13match_resultsIN9__gnu_cxx17__normal_iteratorIPKcSsEESaISt9sub_matchIS4_EEED2Ev
_ZNSt13move_iteratorIPSt4pairIlSt6vectorISt9sub_matchIN9__gnu_cxx17__normal_iteratorIPKcSsEEESaIS8_EEEEC1ESC_
_ZNSt13move_iteratorIPSt4pairIlSt6vectorISt9sub_matchIN9__gnu_cxx17__normal_iteratorIPKcSsEEESaIS8_EEEEC2ESC_
_ZNSt13move_iteratorIPSt4pairIlSt6vectorISt9sub_matchIN9__gnu_cxx17__normal_iteratorIPKcSsEEESaIS8_EEEEppEv
_ZNSt13move_iteratorIPSt9sub_matchIN9__gnu_cxx17__normal_iteratorIPKcSsEEEEC1ES7_
_ZNSt13move_iteratorIPSt9sub_matchIN9__gnu_cxx17__normal_iteratorIPKcSsEEEEC2ES7_
_ZNSt13move_iteratorIPSt9sub_matchIN9__gnu_cxx17__normal_iteratorIPKcSsEEEEppEv
_ZNSt14_Function_base13_Base_managerISt5_BindIFSt7_Mem_fnIM10GameScreenFvN7cocos2d13EventKeyboard7KeyCodeEPNS4_5EventEEEPS3_St12_PlaceholderILi1EESD_ILi2EEEEE10_M_managerERSt9_Any_dataRKSJ_St18_Manager_operation
_ZNSt14_Function_base13_Base_managerISt5_BindIFSt7_Mem_fnIM10GuideLayerFbPN7cocos2d5TouchEPNS4_5EventEEEPS3_St12_PlaceholderILi1EESD_ILi2EEEEE10_M_managerERSt9_Any_dataRKSJ_St18_Manager_operation
_ZNSt14_Function_base13_Base_managerISt5_BindIFSt7_Mem_fnIM10GuideLayerFvPN7cocos2d5TouchEPNS4_5EventEEEPS3_St12_PlaceholderILi1EESD_ILi2EEEEE10_M_managerERSt9_Any_dataRKSJ_St18_Manager_operation
_ZNSt14_Function_base13_Base_managerISt5_BindIFSt7_Mem_fnIM10ItemNoticeFbPN7cocos2d5TouchEPNS4_5EventEEEPS3_St12_PlaceholderILi1EESD_ILi2EEEEE10_M_managerERSt9_Any_dataRKSJ_St18_Manager_operation
_ZNSt14_Function_base13_Base_managerISt5_BindIFSt7_Mem_fnIM10ItemNoticeFvPN7cocos2d3RefENS4_2ui6Widget14TouchEventTypeEEEPS3_St12_PlaceholderILi1EESE_ILi2EEEEE10_M_managerERSt9_Any_dataRKSK_St18_Manager_operation
_ZNSt14_Function_base13_Base_managerISt5_BindIFSt7_Mem_fnIM10ItemNoticeFvPN7cocos2d5TouchEPNS4_5EventEEEPS3_St12_PlaceholderILi1EESD_ILi2EEEEE10_M_managerERSt9_Any_dataRKSJ_St18_Manager_operation
_ZNSt14_Function_base13_Base_managerISt5_BindIFSt7_Mem_fnIM10ItemSignInFbPN7cocos2d5TouchEPNS4_5EventEEEPS3_St12_PlaceholderILi1EESD_ILi2EEEEE10_M_managerERSt9_Any_dataRKSJ_St18_Manager_operation
_ZNSt14_Function_base13_Base_managerISt5_BindIFSt7_Mem_fnIM10ItemSignInFvPN7cocos2d5TouchEPNS4_5EventEEEPS3_St12_PlaceholderILi1EESD_ILi2EEEEE10_M_managerERSt9_Any_dataRKSJ_St18_Manager_operation
_ZNSt14_Function_base13_Base_managerISt5_BindIFSt7_Mem_fnIM10MusicLvBoxFbPN7cocos2d5TouchEPNS4_5EventEEEPS3_St12_PlaceholderILi1EESD_ILi2EEEEE10_M_managerERSt9_Any_dataRKSJ_St18_Manager_operation
_ZNSt14_Function_base13_Base_managerISt5_BindIFSt7_Mem_fnIM10MusicLvBoxFvPN7cocos2d5TouchEPNS4_5EventEEEPS3_St12_PlaceholderILi1EESD_ILi2EEEEE10_M_managerERSt9_Any_dataRKSJ_St18_Manager_operation
_ZNSt14_Function_base13_Base_managerISt5_BindIFSt7_Mem_fnIM10PackageBigFvN9CAdPlugin12eVideoResultEiiEEPS3_St12_PlaceholderILi1EESA_ILi2EESA_ILi3EEEEE10_M_managerERSt9_Any_dataRKSH_St18_Manager_operation
_ZNSt14_Function_base13_Base_managerISt5_BindIFSt7_Mem_fnIM10UIClassBoxFbPN7cocos2d5TouchEPNS4_5EventEEEPS3_St12_PlaceholderILi1EESD_ILi2EEEEE10_M_managerERSt9_Any_dataRKSJ_St18_Manager_operation
_ZNSt14_Function_base13_Base_managerISt5_BindIFSt7_Mem_fnIM10UIClassBoxFvPN7cocos2d3RefEEEPS3_St12_PlaceholderILi1EEEEE10_M_managerERSt9_Any_dataRKSG_St18_Manager_operation
_ZNSt14_Function_base13_Base_managerISt5_BindIFSt7_Mem_fnIM10UIClassBoxFvPN7cocos2d5TouchEPNS4_5EventEEEPS3_St12_PlaceholderILi1EESD_ILi2EEEEE10_M_managerERSt9_Any_dataRKSJ_St18_Manager_operation
_ZNSt14_Function_base13_Base_managerISt5_BindIFSt7_Mem_fnIM10UIExitGameFbPN7cocos2d5TouchEPNS4_5EventEEEPS3_St12_PlaceholderILi1EESD_ILi2EEEEE10_M_managerERSt9_Any_dataRKSJ_St18_Manager_operation
_ZNSt14_Function_base13_Base_managerISt5_BindIFSt7_Mem_fnIM10UIExitGameFvPN7cocos2d5TouchEPNS4_5EventEEEPS3_St12_PlaceholderILi1EESD_ILi2EEEEE10_M_managerERSt9_Any_dataRKSJ_St18_Manager_operation
_ZNSt14_Function_base13_Base_managerISt5_BindIFSt7_Mem_fnIM10UILanguageFbPN7cocos2d5TouchEPNS4_5EventEEEPS3_St12_PlaceholderILi1EESD_ILi2EEEEE10_M_managerERSt9_Any_dataRKSJ_St18_Manager_operation
_ZNSt14_Function_base13_Base_managerISt5_BindIFSt7_Mem_fnIM10UILanguageFvPN7cocos2d5TouchEPNS4_5EventEEEPS3_St12_PlaceholderILi1EESD_ILi2EEEEE10_M_managerERSt9_Any_dataRKSJ_St18_Manager_operation
_ZNSt14_Function_base13_Base_managerISt5_BindIFSt7_Mem_fnIM10UIMoreGameFbPN7cocos2d5TouchEPNS4_5EventEEEPS3_St12_PlaceholderILi1EESD_ILi2EEEEE10_M_managerERSt9_Any_dataRKSJ_St18_Manager_operation
_ZNSt14_Function_base13_Base_managerISt5_BindIFSt7_Mem_fnIM10UIMoreGameFvPN7cocos2d5TouchEPNS4_5EventEEEPS3_St12_PlaceholderILi1EESD_ILi2EEEEE10_M_managerERSt9_Any_dataRKSJ_St18_Manager_operation
_ZNSt14_Function_base13_Base_managerISt5_BindIFSt7_Mem_fnIM10UINeedRateFbPN7cocos2d5TouchEPNS4_5EventEEEPS3_St12_PlaceholderILi1EESD_ILi2EEEEE10_M_managerERSt9_Any_dataRKSJ_St18_Manager_operation
_ZNSt14_Function_base13_Base_managerISt5_BindIFSt7_Mem_fnIM10UINeedRateFvN7cocos2d13EventKeyboard7KeyCodeEPNS4_5EventEEEPS3_St12_PlaceholderILi1EESD_ILi2EEEEE10_M_managerERSt9_Any_dataRKSJ_St18_Manager_operation
_ZNSt14_Function_base13_Base_managerISt5_BindIFSt7_Mem_fnIM10UINeedRateFvPN7cocos2d5TouchEPNS4_5EventEEEPS3_St12_PlaceholderILi1EESD_ILi2EEEEE10_M_managerERSt9_Any_dataRKSJ_St18_Manager_operation
_ZNSt14_Function_base13_Base_managerISt5_BindIFSt7_Mem_fnIM10UIRecomendFbPN7cocos2d5TouchEPNS4_5EventEEEPS3_St12_PlaceholderILi1EESD_ILi2EEEEE10_M_managerERSt9_Any_dataRKSJ_St18_Manager_operation
_ZNSt14_Function_base13_Base_managerISt5_BindIFSt7_Mem_fnIM10UIRecomendFvPN7cocos2d5TouchEPNS4_5EventEEEPS3_St12_PlaceholderILi1EESD_ILi2EEEEE10_M_managerERSt9_Any_dataRKSJ_St18_Manager_operation
_ZNSt14_Function_base13_Base_managerISt5_BindIFSt7_Mem_fnIM10UIRecoveryFbPN7cocos2d5TouchEPNS4_5EventEEEPS3_St12_PlaceholderILi1EESD_ILi2EEEEE10_M_managerERSt9_Any_dataRKSJ_St18_Manager_operation
_ZNSt14_Function_base13_Base_managerISt5_BindIFSt7_Mem_fnIM10UIRecoveryFvPN7cocos2d5TouchEPNS4_5EventEEEPS3_St12_PlaceholderILi1EESD_ILi2EEEEE10_M_managerERSt9_Any_dataRKSJ_St18_Manager_operation
_ZNSt14_Function_base13_Base_managerISt5_BindIFSt7_Mem_fnIM10UISharePicFv11ShareResult13SharePlatformEEPS3_St12_PlaceholderILi1EESA_ILi2EEEEE10_M_managerERSt9_Any_dataRKSG_St18_Manager_operation
_ZNSt14_Function_base13_Base_managerISt5_BindIFSt7_Mem_fnIM10UISharePicFvbSsEEPS3_St12_PlaceholderILi1EES8_ILi2EEEEE10_M_managerERSt9_Any_dataRKSE_St18_Manager_operation
_ZNSt14_Function_base13_Base_managerISt5_BindIFSt7_Mem_fnIM10UIStoreVipFbPN7cocos2d5TouchEPNS4_5EventEEEPS3_St12_PlaceholderILi1EESD_ILi2EEEEE10_M_managerERSt9_Any_dataRKSJ_St18_Manager_operation
_ZNSt14_Function_base13_Base_managerISt5_BindIFSt7_Mem_fnIM10UIStoreVipFvPN7cocos2d3RefEEEPS3_St12_PlaceholderILi1EEEEE10_M_managerERSt9_Any_dataRKSG_St18_Manager_operation
_ZNSt14_Function_base13_Base_managerISt5_BindIFSt7_Mem_fnIM10UIStoreVipFvPN7cocos2d5TouchEPNS4_5EventEEEPS3_St12_PlaceholderILi1EESD_ILi2EEEEE10_M_managerERSt9_Any_dataRKSJ_St18_Manager_operation
_ZNSt14_Function_base13_Base_managerISt5_BindIFSt7_Mem_fnIM10UIStoreVipFvSt6vectorI16SubScriptionInfoSaIS5_EEEEPS3_St12_PlaceholderILi1EEEEE10_M_managerERSt9_Any_dataRKSH_St18_Manager_operation
_ZNSt14_Function_base13_Base_managerISt5_BindIFSt7_Mem_fnIM10UIStoreVipFviEEPS3_St12_PlaceholderILi1EEEEE10_M_managerERSt9_Any_dataRKSD_St18_Manager_operation
_ZNSt14_Function_base13_Base_managerISt5_BindIFSt7_Mem_fnIM11GiftManagerFv17EventStoreDiamondEEPS3_St12_PlaceholderILi1EEEEE10_M_managerERSt9_Any_dataRKSE_St18_Manager_operation
_ZNSt14_Function_base13_Base_managerISt5_BindIFSt7_Mem_fnIM11HTTPManagerFvP16CustomHttpClientP18CustomHttpResponseEEPS3_St12_PlaceholderILi1EESC_ILi2EEEEE10_M_managerERSt9_Any_dataRKSI_St18_Manager_operation
_ZNSt14_Function_base13_Base_managerISt5_BindIFSt7_Mem_fnIM11ItemMsgCardFvPN7cocos2d3RefEEEPS3_St12_PlaceholderILi1EEEEE10_M_managerERSt9_Any_dataRKSG_St18_Manager_operation
_ZNSt14_Function_base13_Base_managerISt5_BindIFSt7_Mem_fnIM11SeasonsViewFvPN7cocos2d11EventCustomEEEPS3_St12_PlaceholderILi1EEEEE10_M_managerERSt9_Any_dataRKSG_St18_Manager_operation
_ZNSt14_Function_base13_Base_managerISt5_BindIFSt7_Mem_fnIM11UICandyRankFbPN7cocos2d5TouchEPNS4_5EventEEEPS3_St12_PlaceholderILi1EESD_ILi2EEEEE10_M_managerERSt9_Any_dataRKSJ_St18_Manager_operation
_ZNSt14_Function_base13_Base_managerISt5_BindIFSt7_Mem_fnIM11UICandyRankFvPN7cocos2d5TouchEPNS4_5EventEEEPS3_St12_PlaceholderILi1EESD_ILi2EEEEE10_M_managerERSt9_Any_dataRKSJ_St18_Manager_operation
_ZNSt14_Function_base13_Base_managerISt5_BindIFSt7_Mem_fnIM11UIDressTipsFbPN7cocos2d5TouchEPNS4_5EventEEEPS3_St12_PlaceholderILi1EESD_ILi2EEEEE10_M_managerERSt9_Any_dataRKSJ_St18_Manager_operation
_ZNSt14_Function_base13_Base_managerISt5_BindIFSt7_Mem_fnIM11UIDressTipsFvPN7cocos2d3RefEEEPS3_St12_PlaceholderILi1EEEEE10_M_managerERSt9_Any_dataRKSG_St18_Manager_operation
_ZNSt14_Function_base13_Base_managerISt5_BindIFSt7_Mem_fnIM11UIDressTipsFvPN7cocos2d5TouchEPNS4_5EventEEEPS3_St12_PlaceholderILi1EESD_ILi2EEEEE10_M_managerERSt9_Any_dataRKSJ_St18_Manager_operation
_ZNSt14_Function_base13_Base_managerISt5_BindIFSt7_Mem_fnIM11UIFailToPayFbPN7cocos2d5TouchEPNS4_5EventEEEPS3_St12_PlaceholderILi1EESD_ILi2EEEEE10_M_managerERSt9_Any_dataRKSJ_St18_Manager_operation
_ZNSt14_Function_base13_Base_managerISt5_BindIFSt7_Mem_fnIM11UIFailToPayFvPN7cocos2d5TouchEPNS4_5EventEEEPS3_St12_PlaceholderILi1EESD_ILi2EEEEE10_M_managerERSt9_Any_dataRKSJ_St18_Manager_operation
_ZNSt14_Function_base13_Base_managerISt5_BindIFSt7_Mem_fnIM11UILuckyDrawFbPN7cocos2d5TouchEPNS4_5EventEEEPS3_St12_PlaceholderILi1EESD_ILi2EEEEE10_M_managerERSt9_Any_dataRKSJ_St18_Manager_operation
_ZNSt14_Function_base13_Base_managerISt5_BindIFSt7_Mem_fnIM11UILuckyDrawFvN9CAdPlugin12eVideoResultEiiEEPS3_St12_PlaceholderILi1EESA_ILi2EESA_ILi3EEEEE10_M_managerERSt9_Any_dataRKSH_St18_Manager_operation
_ZNSt14_Function_base13_Base_managerISt5_BindIFSt7_Mem_fnIM11UILuckyDrawFvPN7cocos2d5TouchEPNS4_5EventEEEPS3_St12_PlaceholderILi1EESD_ILi2EEEEE10_M_managerERSt9_Any_dataRKSJ_St18_Manager_operation
_ZNSt14_Function_base13_Base_managerISt5_BindIFSt7_Mem_fnIM11UIRankTotalFbPN7cocos2d5TouchEPNS4_5EventEEEPS3_St12_PlaceholderILi1EESD_ILi2EEEEE10_M_managerERSt9_Any_dataRKSJ_St18_Manager_operation
_ZNSt14_Function_base13_Base_managerISt5_BindIFSt7_Mem_fnIM11UIRankTotalFvPN7cocos2d3RefEEEPS3_St12_PlaceholderILi1EEEEE10_M_managerERSt9_Any_dataRKSG_St18_Manager_operation
_ZNSt14_Function_base13_Base_managerISt5_BindIFSt7_Mem_fnIM11UIRankTotalFvbSsEEPS3_St12_PlaceholderILi1EES8_ILi2EEEEE10_M_managerERSt9_Any_dataRKSE_St18_Manager_operation
_ZNSt14_Function_base13_Base_managerISt5_BindIFSt7_Mem_fnIM11UIShareFailFbPN7cocos2d5TouchEPNS4_5EventEEEPS3_St12_PlaceholderILi1EESD_ILi2EEEEE10_M_managerERSt9_Any_dataRKSJ_St18_Manager_operation
_ZNSt14_Function_base13_Base_managerISt5_BindIFSt7_Mem_fnIM11UIShareFailFvN7cocos2d13EventKeyboard7KeyCodeEPNS4_5EventEEEPS3_St12_PlaceholderILi1EESD_ILi2EEEEE10_M_managerERSt9_Any_dataRKSJ_St18_Manager_operation
_ZNSt14_Function_base13_Base_managerISt5_BindIFSt7_Mem_fnIM11UIShareFailFvPN7cocos2d5TouchEPNS4_5EventEEEPS3_St12_PlaceholderILi1EESD_ILi2EEEEE10_M_managerERSt9_Any_dataRKSJ_St18_Manager_operation
_ZNSt14_Function_base13_Base_managerISt5_BindIFSt7_Mem_fnIM11UIStoreCoinFbPN7cocos2d5TouchEPNS4_5EventEEEPS3_St12_PlaceholderILi1EESD_ILi2EEEEE10_M_managerERSt9_Any_dataRKSJ_St18_Manager_operation
_ZNSt14_Function_base13_Base_managerISt5_BindIFSt7_Mem_fnIM11UIStoreCoinFvP14DiamondDataRevEEPS3_St12_PlaceholderILi1EEEEE10_M_managerERSt9_Any_dataRKSF_St18_Manager_operation
_ZNSt14_Function_base13_Base_managerISt5_BindIFSt7_Mem_fnIM11UIStoreCoinFvPN7cocos2d11EventCustomEEEPS3_St12_PlaceholderILi1EEEEE10_M_managerERSt9_Any_dataRKSG_St18_Manager_operation
_ZNSt14_Function_base13_Base_managerISt5_BindIFSt7_Mem_fnIM11UIStoreCoinFvPN7cocos2d3RefEEEPS3_St12_PlaceholderILi1EEEEE10_M_managerERSt9_Any_dataRKSG_St18_Manager_operation
_ZNSt14_Function_base13_Base_managerISt5_BindIFSt7_Mem_fnIM11UIStoreCoinFvPN7cocos2d5TouchEPNS4_5EventEEEPS3_St12_PlaceholderILi1EESD_ILi2EEEEE10_M_managerERSt9_Any_dataRKSJ_St18_Manager_operation
_ZNSt14_Function_base13_Base_managerISt5_BindIFSt7_Mem_fnIM11UIStoreItemFvN9CAdPlugin12eVideoResultEiiEEPS3_St12_PlaceholderILi1EESA_ILi2EESA_ILi3EEEEE10_M_managerERSt9_Any_dataRKSH_St18_Manager_operation
_ZNSt14_Function_base13_Base_managerISt5_BindIFSt7_Mem_fnIM11UIStoreLifeFbPN7cocos2d5TouchEPNS4_5EventEEEPS3_St12_PlaceholderILi1EESD_ILi2EEEEE10_M_managerERSt9_Any_dataRKSJ_St18_Manager_operation
_ZNSt14_Function_base13_Base_managerISt5_BindIFSt7_Mem_fnIM11UIStoreLifeFvN9CAdPlugin12eVideoResultEiiEEPS3_St12_PlaceholderILi1EESA_ILi2EESA_ILi3EEEEE10_M_managerERSt9_Any_dataRKSH_St18_Manager_operation
_ZNSt14_Function_base13_Base_managerISt5_BindIFSt7_Mem_fnIM11UIStoreLifeFvPN7cocos2d3RefEEEPS3_St12_PlaceholderILi1EEEEE10_M_managerERSt9_Any_dataRKSG_St18_Manager_operation
_ZNSt14_Function_base13_Base_managerISt5_BindIFSt7_Mem_fnIM11UIStoreLifeFvPN7cocos2d5TouchEPNS4_5EventEEEPS3_St12_PlaceholderILi1EESD_ILi2EEEEE10_M_managerERSt9_Any_dataRKSJ_St18_Manager_operation
_ZNSt14_Function_base13_Base_managerISt5_BindIFSt7_Mem_fnIM11UIXmasTowerFbPN7cocos2d5TouchEPNS4_5EventEEEPS3_St12_PlaceholderILi1EESD_ILi2EEEEE10_M_managerERSt9_Any_dataRKSJ_St18_Manager_operation
_ZNSt14_Function_base13_Base_managerISt5_BindIFSt7_Mem_fnIM11UIXmasTowerFvPN7cocos2d5TouchEPNS4_5EventEEEPS3_St12_PlaceholderILi1EESD_ILi2EEEEE10_M_managerERSt9_Any_dataRKSJ_St18_Manager_operation
_ZNSt14_Function_base13_Base_managerISt5_BindIFSt7_Mem_fnIM12CDBuyManagerFv17EventStoreDiamondEEPS3_St12_PlaceholderILi1EEEEE10_M_managerERSt9_Any_dataRKSE_St18_Manager_operation
_ZNSt14_Function_base13_Base_managerISt5_BindIFSt7_Mem_fnIM12CImageThreadFvPN7cocos2d9Texture2DEEEPS3_St12_PlaceholderILi1EEEEE10_M_managerERSt9_Any_dataRKSG_St18_Manager_operation
_ZNSt14_Function_base13_Base_managerISt5_BindIFSt7_Mem_fnIM12ItemPayMusicFvN9CAdPlugin12eVideoResultEiiEEPS3_St12_PlaceholderILi1EESA_ILi2EESA_ILi3EEEEE10_M_managerERSt9_Any_dataRKSH_St18_Manager_operation
_ZNSt14_Function_base13_Base_managerISt5_BindIFSt7_Mem_fnIM12ItemPayMusicFvPN7cocos2d3RefENS4_2ui6Widget14TouchEventTypeEEEPS3_St12_PlaceholderILi1EESE_ILi2EEEEE10_M_managerERSt9_Any_dataRKSK_St18_Manager_operation
_ZNSt14_Function_base13_Base_managerISt5_BindIFSt7_Mem_fnIM12UIEmailAwardFbPN7cocos2d5TouchEPNS4_5EventEEEPS3_St12_PlaceholderILi1EESD_ILi2EEEEE10_M_managerERSt9_Any_dataRKSJ_St18_Manager_operation
_ZNSt14_Function_base13_Base_managerISt5_BindIFSt7_Mem_fnIM12UIEmailAwardFvPN7cocos2d5TouchEPNS4_5EventEEEPS3_St12_PlaceholderILi1EESD_ILi2EEEEE10_M_managerERSt9_Any_dataRKSJ_St18_Manager_operation
_ZNSt14_Function_base13_Base_managerISt5_BindIFSt7_Mem_fnIM12UIFavorGuideFbPN7cocos2d5TouchEPNS4_5EventEEEPS3_St12_PlaceholderILi1EESD_ILi2EEEEE10_M_managerERSt9_Any_dataRKSJ_St18_Manager_operation
_ZNSt14_Function_base13_Base_managerISt5_BindIFSt7_Mem_fnIM12UIFavorGuideFvPN7cocos2d5TouchEPNS4_5EventEEEPS3_St12_PlaceholderILi1EESD_ILi2EEEEE10_M_managerERSt9_Any_dataRKSJ_St18_Manager_operation
_ZNSt14_Function_base13_Base_managerISt5_BindIFSt7_Mem_fnIM12UIItemBuyNewFvN9CAdPlugin12eVideoResultEiiEEPS3_St12_PlaceholderILi1EESA_ILi2EESA_ILi3EEEEE10_M_managerERSt9_Any_dataRKSH_St18_Manager_operation
_ZNSt14_Function_base13_Base_managerISt5_BindIFSt7_Mem_fnIM12UILittleGameFvPN7cocos2d11EventCustomEEEPS3_St12_PlaceholderILi1EEEEE10_M_managerERSt9_Any_dataRKSG_St18_Manager_operation
_ZNSt14_Function_base13_Base_managerISt5_BindIFSt7_Mem_fnIM12UILittleGameFvPN7cocos2d3RefEEEPS3_St12_PlaceholderILi1EEEEE10_M_managerERSt9_Any_dataRKSG_St18_Manager_operation
_ZNSt14_Function_base13_Base_managerISt5_BindIFSt7_Mem_fnIM12UILoveGoSongFbPN7cocos2d5TouchEPNS4_5EventEEEPS3_St12_PlaceholderILi1EESD_ILi2EEEEE10_M_managerERSt9_Any_dataRKSJ_St18_Manager_operation
_ZNSt14_Function_base13_Base_managerISt5_BindIFSt7_Mem_fnIM12UILoveGoSongFvPN7cocos2d3RefEEEPS3_St12_PlaceholderILi1EEEEE10_M_managerERSt9_Any_dataRKSG_St18_Manager_operation
_ZNSt14_Function_base13_Base_managerISt5_BindIFSt7_Mem_fnIM12UILoveGoSongFvPN7cocos2d5TouchEPNS4_5EventEEEPS3_St12_PlaceholderILi1EESD_ILi2EEEEE10_M_managerERSt9_Any_dataRKSJ_St18_Manager_operation
_ZNSt14_Function_base13_Base_managerISt5_BindIFSt7_Mem_fnIM12UIMessageBoxFbPN7cocos2d5TouchEPNS4_5EventEEEPS3_St12_PlaceholderILi1EESD_ILi2EEEEE10_M_managerERSt9_Any_dataRKSJ_St18_Manager_operation
_ZNSt14_Function_base13_Base_managerISt5_BindIFSt7_Mem_fnIM12UIMessageBoxFvPN7cocos2d3RefEEEPS3_St12_PlaceholderILi1EEEEE10_M_managerERSt9_Any_dataRKSG_St18_Manager_operation
_ZNSt14_Function_base13_Base_managerISt5_BindIFSt7_Mem_fnIM12UIMessageBoxFvPN7cocos2d5TouchEPNS4_5EventEEEPS3_St12_PlaceholderILi1EESD_ILi2EEEEE10_M_managerERSt9_Any_dataRKSJ_St18_Manager_operation
_ZNSt14_Function_base13_Base_managerISt5_BindIFSt7_Mem_fnIM12UIPayVisitorFbPN7cocos2d5TouchEPNS4_5EventEEEPS3_St12_PlaceholderILi1EESD_ILi2EEEEE10_M_managerERSt9_Any_dataRKSJ_St18_Manager_operation
_ZNSt14_Function_base13_Base_managerISt5_BindIFSt7_Mem_fnIM12UIPayVisitorFvPN7cocos2d5TouchEPNS4_5EventEEEPS3_St12_PlaceholderILi1EESD_ILi2EEEEE10_M_managerERSt9_Any_dataRKSJ_St18_Manager_operation
_ZNSt14_Function_base13_Base_managerISt5_BindIFSt7_Mem_fnIM12UIPianistEndFbPN7cocos2d5TouchEPNS4_5EventEEEPS3_St12_PlaceholderILi1EESD_ILi2EEEEE10_M_managerERSt9_Any_dataRKSJ_St18_Manager_operation
_ZNSt14_Function_base13_Base_managerISt5_BindIFSt7_Mem_fnIM12UIPianistEndFvP14DiamondDataRevEEPS3_St12_PlaceholderILi1EEEEE10_M_managerERSt9_Any_dataRKSF_St18_Manager_operation
_ZNSt14_Function_base13_Base_managerISt5_BindIFSt7_Mem_fnIM12UIPianistEndFvPN7cocos2d3RefEEEPS3_St12_PlaceholderILi1EEEEE10_M_managerERSt9_Any_dataRKSG_St18_Manager_operation
_ZNSt14_Function_base13_Base_managerISt5_BindIFSt7_Mem_fnIM12UIPianistEndFvPN7cocos2d5TouchEPNS4_5EventEEEPS3_St12_PlaceholderILi1EESD_ILi2EEEEE10_M_managerERSt9_Any_dataRKSJ_St18_Manager_operation
_ZNSt14_Function_base13_Base_managerISt5_BindIFSt7_Mem_fnIM12UIQuickStartFbPN7cocos2d5TouchEPNS4_5EventEEEPS3_St12_PlaceholderILi1EESD_ILi2EEEEE10_M_managerERSt9_Any_dataRKSJ_St18_Manager_operation
_ZNSt14_Function_base13_Base_managerISt5_BindIFSt7_Mem_fnIM12UIQuickStartFvPN7cocos2d3RefEEEPS3_St12_PlaceholderILi1EEEEE10_M_managerERSt9_Any_dataRKSG_St18_Manager_operation
_ZNSt14_Function_base13_Base_managerISt5_BindIFSt7_Mem_fnIM12UIQuickStartFvPN7cocos2d5TouchEPNS4_5EventEEEPS3_St12_PlaceholderILi1EESD_ILi2EEEEE10_M_managerERSt9_Any_dataRKSJ_St18_Manager_operation
_ZNSt14_Function_base13_Base_managerISt5_BindIFSt7_Mem_fnIM12UIShareAlbumFbPN7cocos2d5TouchEPNS4_5EventEEEPS3_St12_PlaceholderILi1EESD_ILi2EEEEE10_M_managerERSt9_Any_dataRKSJ_St18_Manager_operation
_ZNSt14_Function_base13_Base_managerISt5_BindIFSt7_Mem_fnIM12UIShareAlbumFv11ShareResult13SharePlatformEEPS3_St12_PlaceholderILi1EESA_ILi2EEEEE10_M_managerERSt9_Any_dataRKSG_St18_Manager_operation
_ZNSt14_Function_base13_Base_managerISt5_BindIFSt7_Mem_fnIM12UIShareAlbumFvPN7cocos2d3RefEEEPS3_St12_PlaceholderILi1EEEEE10_M_managerERSt9_Any_dataRKSG_St18_Manager_operation
_ZNSt14_Function_base13_Base_managerISt5_BindIFSt7_Mem_fnIM12UIShareAlbumFvPN7cocos2d5TouchEPNS4_5EventEEEPS3_St12_PlaceholderILi1EESD_ILi2EEEEE10_M_managerERSt9_Any_dataRKSJ_St18_Manager_operation
_ZNSt14_Function_base13_Base_managerISt5_BindIFSt7_Mem_fnIM12UIStoreLevelFbPN7cocos2d5TouchEPNS4_5EventEEEPS3_St12_PlaceholderILi1EESD_ILi2EEEEE10_M_managerERSt9_Any_dataRKSJ_St18_Manager_operation
_ZNSt14_Function_base13_Base_managerISt5_BindIFSt7_Mem_fnIM12UIStoreLevelFvPN7cocos2d5TouchEPNS4_5EventEEEPS3_St12_PlaceholderILi1EESD_ILi2EEEEE10_M_managerERSt9_Any_dataRKSJ_St18_Manager_operation
_ZNSt14_Function_base13_Base_managerISt5_BindIFSt7_Mem_fnIM13BannerManagerFvN9CAdPlugin12eVideoResultEiiEEPS3_St12_PlaceholderILi1EESA_ILi2EESA_ILi3EEEEE10_M_managerERSt9_Any_dataRKSH_St18_Manager_operation
_ZNSt14_Function_base13_Base_managerISt5_BindIFSt7_Mem_fnIM13BurstRowLayerFvPN7cocos2d11EventCustomEEEPS3_St12_PlaceholderILi1EEEEE10_M_managerERSt9_Any_dataRKSG_St18_Manager_operation
_ZNSt14_Function_base13_Base_managerISt5_BindIFSt7_Mem_fnIM13ItemHallVideoFbPN7cocos2d5TouchEPNS4_5EventEEEPS3_St12_PlaceholderILi1EESD_ILi2EEEEE10_M_managerERSt9_Any_dataRKSJ_St18_Manager_operation
_ZNSt14_Function_base13_Base_managerISt5_BindIFSt7_Mem_fnIM13ItemHallVideoFvN9CAdPlugin12eVideoResultEiiEEPS3_St12_PlaceholderILi1EESA_ILi2EESA_ILi3EEEEE10_M_managerERSt9_Any_dataRKSH_St18_Manager_operation
_ZNSt14_Function_base13_Base_managerISt5_BindIFSt7_Mem_fnIM13ItemHallVideoFvPN7cocos2d5TouchEPNS4_5EventEEEPS3_St12_PlaceholderILi1EESD_ILi2EEEEE10_M_managerERSt9_Any_dataRKSJ_St18_Manager_operation
_ZNSt14_Function_base13_Base_managerISt5_BindIFSt7_Mem_fnIM13ItemLoginExitFvPN7cocos2d3RefEEEPS3_St12_PlaceholderILi1EEEEE10_M_managerERSt9_Any_dataRKSG_St18_Manager_operation
_ZNSt14_Function_base13_Base_managerISt5_BindIFSt7_Mem_fnIM13ItemPlayMusicFvPN7cocos2d3RefENS4_2ui6Widget14TouchEventTypeEEEPS3_St12_PlaceholderILi1EESE_ILi2EEEEE10_M_managerERSt9_Any_dataRKSK_St18_Manager_operation
_ZNSt14_Function_base13_Base_managerISt5_BindIFSt7_Mem_fnIM13ItemSelectionFvN9CAdPlugin12eVideoResultEiiEEPS3_St12_PlaceholderILi1EESA_ILi2EESA_ILi3EEEEE10_M_managerERSt9_Any_dataRKSH_St18_Manager_operation
_ZNSt14_Function_base13_Base_managerISt5_BindIFSt7_Mem_fnIM13ItemSelectionFvPN7cocos2d3RefENS4_2ui6Widget14TouchEventTypeEEEPS3_St12_PlaceholderILi1EESE_ILi2EEEEE10_M_managerERSt9_Any_dataRKSK_St18_Manager_operation
_ZNSt14_Function_base13_Base_managerISt5_BindIFSt7_Mem_fnIM13PackageNormalFvN9CAdPlugin12eVideoResultEiiEEPS3_St12_PlaceholderILi1EESA_ILi2EESA_ILi3EEEEE10_M_managerERSt9_Any_dataRKSH_St18_Manager_operation
_ZNSt14_Function_base13_Base_managerISt5_BindIFSt7_Mem_fnIM13UIContinueNewFvN9CAdPlugin12eVideoResultEiiEEPS3_St12_PlaceholderILi1EESA_ILi2EESA_ILi3EEEEE10_M_managerERSt9_Any_dataRKSH_St18_Manager_operation
_ZNSt14_Function_base13_Base_managerISt5_BindIFSt7_Mem_fnIM13UICustomToastFbPN7cocos2d5TouchEPNS4_5EventEEEPS3_St12_PlaceholderILi1EESD_ILi2EEEEE10_M_managerERSt9_Any_dataRKSJ_St18_Manager_operation
_ZNSt14_Function_base13_Base_managerISt5_BindIFSt7_Mem_fnIM13UIDiffAccountFbPN7cocos2d5TouchEPNS4_5EventEEEPS3_St12_PlaceholderILi1EESD_ILi2EEEEE10_M_managerERSt9_Any_dataRKSJ_St18_Manager_operation
_ZNSt14_Function_base13_Base_managerISt5_BindIFSt7_Mem_fnIM13UIDiffAccountFvPN7cocos2d5TouchEPNS4_5EventEEEPS3_St12_PlaceholderILi1EESD_ILi2EEEEE10_M_managerERSt9_Any_dataRKSJ_St18_Manager_operation
_ZNSt14_Function_base13_Base_managerISt5_BindIFSt7_Mem_fnIM13UIFirstChargeFbPN7cocos2d5TouchEPNS4_5EventEEEPS3_St12_PlaceholderILi1EESD_ILi2EEEEE10_M_managerERSt9_Any_dataRKSJ_St18_Manager_operation
_ZNSt14_Function_base13_Base_managerISt5_BindIFSt7_Mem_fnIM13UIFirstChargeFvPN7cocos2d5TouchEPNS4_5EventEEEPS3_St12_PlaceholderILi1EESD_ILi2EEEEE10_M_managerERSt9_Any_dataRKSJ_St18_Manager_operation
_ZNSt14_Function_base13_Base_managerISt5_BindIFSt7_Mem_fnIM13UIMaskLoadingFbPN7cocos2d5TouchEPNS4_5EventEEEPS3_St12_PlaceholderILi1EESD_ILi2EEEEE10_M_managerERSt9_Any_dataRKSJ_St18_Manager_operation
_ZNSt14_Function_base13_Base_managerISt5_BindIFSt7_Mem_fnIM13UIMaskLoadingFvPN7cocos2d5TouchEPNS4_5EventEEEPS3_St12_PlaceholderILi1EESD_ILi2EEEEE10_M_managerERSt9_Any_dataRKSJ_St18_Manager_operation
_ZNSt14_Function_base13_Base_managerISt5_BindIFSt7_Mem_fnIM13UIMoreDiamondFbPN7cocos2d5TouchEPNS4_5EventEEEPS3_St12_PlaceholderILi1EESD_ILi2EEEEE10_M_managerERSt9_Any_dataRKSJ_St18_Manager_operation
_ZNSt14_Function_base13_Base_managerISt5_BindIFSt7_Mem_fnIM13UIMoreDiamondFvN9CAdPlugin12eVideoResultEiiEEPS3_St12_PlaceholderILi1EESA_ILi2EESA_ILi3EEEEE10_M_managerERSt9_Any_dataRKSH_St18_Manager_operation
_ZNSt14_Function_base13_Base_managerISt5_BindIFSt7_Mem_fnIM13UIMoreDiamondFvPN7cocos2d5TouchEPNS4_5EventEEEPS3_St12_PlaceholderILi1EESD_ILi2EEEEE10_M_managerERSt9_Any_dataRKSJ_St18_Manager_operation
_ZNSt14_Function_base13_Base_managerISt5_BindIFSt7_Mem_fnIM13UIMusicUnlockFbPN7cocos2d5TouchEPNS4_5EventEEEPS3_St12_PlaceholderILi1EESD_ILi2EEEEE10_M_managerERSt9_Any_dataRKSJ_St18_Manager_operation
_ZNSt14_Function_base13_Base_managerISt5_BindIFSt7_Mem_fnIM13UIMusicUnlockFvPN7cocos2d5TouchEPNS4_5EventEEEPS3_St12_PlaceholderILi1EESD_ILi2EEEEE10_M_managerERSt9_Any_dataRKSJ_St18_Manager_operation
_ZNSt14_Function_base13_Base_managerISt5_BindIFSt7_Mem_fnIM13UINewYearGiftFbPN7cocos2d5TouchEPNS4_5EventEEEPS3_St12_PlaceholderILi1EESD_ILi2EEEEE10_M_managerERSt9_Any_dataRKSJ_St18_Manager_operation
_ZNSt14_Function_base13_Base_managerISt5_BindIFSt7_Mem_fnIM13UINewYearGiftFvPN7cocos2d5TouchEPNS4_5EventEEEPS3_St12_PlaceholderILi1EESD_ILi2EEEEE10_M_managerERSt9_Any_dataRKSJ_St18_Manager_operation
_ZNSt14_Function_base13_Base_managerISt5_BindIFSt7_Mem_fnIM13UIShareSucessFbPN7cocos2d5TouchEPNS4_5EventEEEPS3_St12_PlaceholderILi1EESD_ILi2EEEEE10_M_managerERSt9_Any_dataRKSJ_St18_Manager_operation
_ZNSt14_Function_base13_Base_managerISt5_BindIFSt7_Mem_fnIM13UIShareSucessFvN7cocos2d13EventKeyboard7KeyCodeEPNS4_5EventEEEPS3_St12_PlaceholderILi1EESD_ILi2EEEEE10_M_managerERSt9_Any_dataRKSJ_St18_Manager_operation
_ZNSt14_Function_base13_Base_managerISt5_BindIFSt7_Mem_fnIM13UIShareSucessFvPN7cocos2d5TouchEPNS4_5EventEEEPS3_St12_PlaceholderILi1EESD_ILi2EEEEE10_M_managerERSt9_Any_dataRKSJ_St18_Manager_operation
_ZNSt14_Function_base13_Base_managerISt5_BindIFSt7_Mem_fnIM13UISyncLoadingFbPN7cocos2d5TouchEPNS4_5EventEEEPS3_St12_PlaceholderILi1EESD_ILi2EEEEE10_M_managerERSt9_Any_dataRKSJ_St18_Manager_operation
_ZNSt14_Function_base13_Base_managerISt5_BindIFSt7_Mem_fnIM13UISyncLoadingFvPN7cocos2d5TouchEPNS4_5EventEEEPS3_St12_PlaceholderILi1EESD_ILi2EEEEE10_M_managerERSt9_Any_dataRKSJ_St18_Manager_operation
_ZNSt14_Function_base13_Base_managerISt5_BindIFSt7_Mem_fnIM14AlbumCoverItemFvPN7cocos2d3RefENS4_2ui6Widget14TouchEventTypeEEEPS3_St12_PlaceholderILi1EESE_ILi2EEEEE10_M_managerERSt9_Any_dataRKSK_St18_Manager_operation
_ZNSt14_Function_base13_Base_managerISt5_BindIFSt7_Mem_fnIM14CItemMusicGoalFvPN7cocos2d3RefEEEPS3_St12_PlaceholderILi1EEEEE10_M_managerERSt9_Any_dataRKSG_St18_Manager_operation
_ZNSt14_Function_base13_Base_managerISt5_BindIFSt7_Mem_fnIM14CResVerManagerFvRKN8CGameRes8ResStateEEEPS3_St12_PlaceholderILi1EEEEE10_M_managerERSt9_Any_dataRKSH_St18_Manager_operation
_ZNSt14_Function_base13_Base_managerISt5_BindIFSt7_Mem_fnIM14FlashADManagerFvP16CustomHttpClientP18CustomHttpResponseEEPS3_St12_PlaceholderILi1EESC_ILi2EEEEE10_M_managerERSt9_Any_dataRKSI_St18_Manager_operation
_ZNSt14_Function_base13_Base_managerISt5_BindIFSt7_Mem_fnIM14FlashADManagerFvRKN8CGameRes8ResStateEEEPS3_St12_PlaceholderILi1EEEEE10_M_managerERSt9_Any_dataRKSH_St18_Manager_operation
_ZNSt14_Function_base13_Base_managerISt5_BindIFSt7_Mem_fnIM14FlashADRequestFvP16CustomHttpClientP18CustomHttpResponseEEPS3_St12_PlaceholderILi1EESC_ILi2EEEEE10_M_managerERSt9_Any_dataRKSI_St18_Manager_operation
_ZNSt14_Function_base13_Base_managerISt5_BindIFSt7_Mem_fnIM14FlashADRequestFvRKN8CGameRes8ResStateEEEPS3_St12_PlaceholderILi1EEEEE10_M_managerERSt9_Any_dataRKSH_St18_Manager_operation
_ZNSt14_Function_base13_Base_managerISt5_BindIFSt7_Mem_fnIM14ItemBuyDiamondFvPN7cocos2d3RefEEEPS3_St12_PlaceholderILi1EEEEE10_M_managerERSt9_Any_dataRKSG_St18_Manager_operation
_ZNSt14_Function_base13_Base_managerISt5_BindIFSt7_Mem_fnIM14ItemBuyManagerFv17EventStoreDiamondEEPS3_St12_PlaceholderILi1EEEEE10_M_managerERSt9_Any_dataRKSE_St18_Manager_operation
_ZNSt14_Function_base13_Base_managerISt5_BindIFSt7_Mem_fnIM14ItemFirstLoginFvPN7cocos2d3RefEEEPS3_St12_PlaceholderILi1EEEEE10_M_managerERSt9_Any_dataRKSG_St18_Manager_operation
_ZNSt14_Function_base13_Base_managerISt5_BindIFSt7_Mem_fnIM14ItemInviteItemFvPN7cocos2d3RefENS4_2ui6Widget14TouchEventTypeEEEPS3_St12_PlaceholderILi1EESE_ILi2EEEEE10_M_managerERSt9_Any_dataRKSK_St18_Manager_operation
_ZNSt14_Function_base13_Base_managerISt5_BindIFSt7_Mem_fnIM14ItemMsgCardBtnFvPN7cocos2d3RefEEEPS3_St12_PlaceholderILi1EEEEE10_M_managerERSt9_Any_dataRKSG_St18_Manager_operation
_ZNSt14_Function_base13_Base_managerISt5_BindIFSt7_Mem_fnIM14ItemRankInviteFvPN7cocos2d3RefENS4_2ui6Widget14TouchEventTypeEEEPS3_St12_PlaceholderILi1EESE_ILi2EEEEE10_M_managerERSt9_Any_dataRKSK_St18_Manager_operation
_ZNSt14_Function_base13_Base_managerISt5_BindIFSt7_Mem_fnIM14UIAboutPrivacyFvPN7cocos2d3RefEEEPS3_St12_PlaceholderILi1EEEEE10_M_managerERSt9_Any_dataRKSG_St18_Manager_operation
_ZNSt14_Function_base13_Base_managerISt5_BindIFSt7_Mem_fnIM14UIBattleMasterFbPN7cocos2d5TouchEPNS4_5EventEEEPS3_St12_PlaceholderILi1EESD_ILi2EEEEE10_M_managerERSt9_Any_dataRKSJ_St18_Manager_operation
_ZNSt14_Function_base13_Base_managerISt5_BindIFSt7_Mem_fnIM14UIBattleMasterFvPN7cocos2d3RefEEEPS3_St12_PlaceholderILi1EEEEE10_M_managerERSt9_Any_dataRKSG_St18_Manager_operation
_ZNSt14_Function_base13_Base_managerISt5_BindIFSt7_Mem_fnIM14UIBattleMasterFvPN7cocos2d5TouchEPNS4_5EventEEEPS3_St12_PlaceholderILi1EESD_ILi2EEEEE10_M_managerERSt9_Any_dataRKSJ_St18_Manager_operation
_ZNSt14_Function_base13_Base_managerISt5_BindIFSt7_Mem_fnIM14UIBattleMasterFvvEEPS3_EEE10_M_managerERSt9_Any_dataRKSB_St18_Manager_operation
_ZNSt14_Function_base13_Base_managerISt5_BindIFSt7_Mem_fnIM14UICDCollectionFbPN7cocos2d5TouchEPNS4_5EventEEEPS3_St12_PlaceholderILi1EESD_ILi2EEEEE10_M_managerERSt9_Any_dataRKSJ_St18_Manager_operation
_ZNSt14_Function_base13_Base_managerISt5_BindIFSt7_Mem_fnIM14UICDCollectionFvPN7cocos2d3RefEEEPS3_St12_PlaceholderILi1EEEEE10_M_managerERSt9_Any_dataRKSG_St18_Manager_operation
_ZNSt14_Function_base13_Base_managerISt5_BindIFSt7_Mem_fnIM14UICDCollectionFvPN7cocos2d3RefENS4_2ui8PageView9EventTypeEEEPS3_St12_PlaceholderILi1EESE_ILi2EEEEE10_M_managerERSt9_Any_dataRKSK_St18_Manager_operation
_ZNSt14_Function_base13_Base_managerISt5_BindIFSt7_Mem_fnIM14UICDCollectionFvPN7cocos2d5TouchEPNS4_5EventEEEPS3_St12_PlaceholderILi1EESD_ILi2EEEEE10_M_managerERSt9_Any_dataRKSJ_St18_Manager_operation
_ZNSt14_Function_base13_Base_managerISt5_BindIFSt7_Mem_fnIM14UICheckInLayerFvN9CAdPlugin12eVideoResultEiiEEPS3_St12_PlaceholderILi1EESA_ILi2EESA_ILi3EEEEE10_M_managerERSt9_Any_dataRKSH_St18_Manager_operation
_ZNSt14_Function_base13_Base_managerISt5_BindIFSt7_Mem_fnIM14UIClassRankBoxFbPN7cocos2d5TouchEPNS4_5EventEEEPS3_St12_PlaceholderILi1EESD_ILi2EEEEE10_M_managerERSt9_Any_dataRKSJ_St18_Manager_operation
_ZNSt14_Function_base13_Base_managerISt5_BindIFSt7_Mem_fnIM14UIClassRankBoxFvPN7cocos2d11EventCustomEEEPS3_St12_PlaceholderILi1EEEEE10_M_managerERSt9_Any_dataRKSG_St18_Manager_operation
_ZNSt14_Function_base13_Base_managerISt5_BindIFSt7_Mem_fnIM14UIClassRankBoxFvPN7cocos2d3RefEEEPS3_St12_PlaceholderILi1EEEEE10_M_managerERSt9_Any_dataRKSG_St18_Manager_operation
_ZNSt14_Function_base13_Base_managerISt5_BindIFSt7_Mem_fnIM14UIClassRankBoxFvPN7cocos2d5TouchEPNS4_5EventEEEPS3_St12_PlaceholderILi1EESD_ILi2EEEEE10_M_managerERSt9_Any_dataRKSJ_St18_Manager_operation
_ZNSt14_Function_base13_Base_managerISt5_BindIFSt7_Mem_fnIM14UIDialogOpenADFbPN7cocos2d5TouchEPNS4_5EventEEEPS3_St12_PlaceholderILi1EESD_ILi2EEEEE10_M_managerERSt9_Any_dataRKSJ_St18_Manager_operation
_ZNSt14_Function_base13_Base_managerISt5_BindIFSt7_Mem_fnIM14UIDialogOpenADFvPN10cocostudio8timeline5FrameEEEPS3_St12_PlaceholderILi1EEEEE10_M_managerERSt9_Any_dataRKSH_St18_Manager_operation
_ZNSt14_Function_base13_Base_managerISt5_BindIFSt7_Mem_fnIM14UINewVipMusicsFbPN7cocos2d5TouchEPNS4_5EventEEEPS3_St12_PlaceholderILi1EESD_ILi2EEEEE10_M_managerERSt9_Any_dataRKSJ_St18_Manager_operation
_ZNSt14_Function_base13_Base_managerISt5_BindIFSt7_Mem_fnIM14UINewVipMusicsFvPN7cocos2d5TouchEPNS4_5EventEEEPS3_St12_PlaceholderILi1EESD_ILi2EEEEE10_M_managerERSt9_Any_dataRKSJ_St18_Manager_operation
_ZNSt14_Function_base13_Base_managerISt5_BindIFSt7_Mem_fnIM14UIPianistBeginFbPN7cocos2d5TouchEPNS4_5EventEEEPS3_St12_PlaceholderILi1EESD_ILi2EEEEE10_M_managerERSt9_Any_dataRKSJ_St18_Manager_operation
_ZNSt14_Function_base13_Base_managerISt5_BindIFSt7_Mem_fnIM14UIPianistBeginFvPN7cocos2d5TouchEPNS4_5EventEEEPS3_St12_PlaceholderILi1EESD_ILi2EEEEE10_M_managerERSt9_Any_dataRKSJ_St18_Manager_operation
_ZNSt14_Function_base13_Base_managerISt5_BindIFSt7_Mem_fnIM14UIRankMainLineFbPN7cocos2d5TouchEPNS4_5EventEEEPS3_St12_PlaceholderILi1EESD_ILi2EEEEE10_M_managerERSt9_Any_dataRKSJ_St18_Manager_operation
_ZNSt14_Function_base13_Base_managerISt5_BindIFSt7_Mem_fnIM14UIRankMainLineFvPN7cocos2d5TouchEPNS4_5EventEEEPS3_St12_PlaceholderILi1EESD_ILi2EEEEE10_M_managerERSt9_Any_dataRKSJ_St18_Manager_operation
_ZNSt14_Function_base13_Base_managerISt5_BindIFSt7_Mem_fnIM14UIShareDialogeFbPN7cocos2d5TouchEPNS4_5EventEEEPS3_St12_PlaceholderILi1EESD_ILi2EEEEE10_M_managerERSt9_Any_dataRKSJ_St18_Manager_operation
_ZNSt14_Function_base13_Base_managerISt5_BindIFSt7_Mem_fnIM14UIShareDialogeFvPN7cocos2d5TouchEPNS4_5EventEEEPS3_St12_PlaceholderILi1EESD_ILi2EEEEE10_M_managerERSt9_Any_dataRKSJ_St18_Manager_operation
_ZNSt14_Function_base13_Base_managerISt5_BindIFSt7_Mem_fnIM14UISharePumpkinFv11ShareResult13SharePlatformEEPS3_St12_PlaceholderILi1EESA_ILi2EEEEE10_M_managerERSt9_Any_dataRKSG_St18_Manager_operation
_ZNSt14_Function_base13_Base_managerISt5_BindIFSt7_Mem_fnIM14UISharePumpkinFvbSsEEPS3_St12_PlaceholderILi1EES8_ILi2EEEEE10_M_managerERSt9_Any_dataRKSE_St18_Manager_operation
_ZNSt14_Function_base13_Base_managerISt5_BindIFSt7_Mem_fnIM14UIStoreDiamondFbPN7cocos2d5TouchEPNS4_5EventEEEPS3_St12_PlaceholderILi1EESD_ILi2EEEEE10_M_managerERSt9_Any_dataRKSJ_St18_Manager_operation
_ZNSt14_Function_base13_Base_managerISt5_BindIFSt7_Mem_fnIM14UIStoreDiamondFv17EventStoreDiamondEEPS3_St12_PlaceholderILi1EEEEE10_M_managerERSt9_Any_dataRKSE_St18_Manager_operation
_ZNSt14_Function_base13_Base_managerISt5_BindIFSt7_Mem_fnIM14UIStoreDiamondFvN9CAdPlugin12eVideoResultEiiEEPS3_St12_PlaceholderILi1EESA_ILi2EESA_ILi3EEEEE10_M_managerERSt9_Any_dataRKSH_St18_Manager_operation
_ZNSt14_Function_base13_Base_managerISt5_BindIFSt7_Mem_fnIM14UIStoreDiamondFvPN7cocos2d5TouchEPNS4_5EventEEEPS3_St12_PlaceholderILi1EESD_ILi2EEEEE10_M_managerERSt9_Any_dataRKSJ_St18_Manager_operation
_ZNSt14_Function_base13_Base_managerISt5_BindIFSt7_Mem_fnIM14UIXmasGoldTipsFbPN7cocos2d5TouchEPNS4_5EventEEEPS3_St12_PlaceholderILi1EESD_ILi2EEEEE10_M_managerERSt9_Any_dataRKSJ_St18_Manager_operation
_ZNSt14_Function_base13_Base_managerISt5_BindIFSt7_Mem_fnIM14UIXmasGoldTipsFvPN7cocos2d3RefEEEPS3_St12_PlaceholderILi1EEEEE10_M_managerERSt9_Any_dataRKSG_St18_Manager_operation
_ZNSt14_Function_base13_Base_managerISt5_BindIFSt7_Mem_fnIM14UIXmasGoldTipsFvPN7cocos2d5TouchEPNS4_5EventEEEPS3_St12_PlaceholderILi1EESD_ILi2EEEEE10_M_managerERSt9_Any_dataRKSJ_St18_Manager_operation
_ZNSt14_Function_base13_Base_managerISt5_BindIFSt7_Mem_fnIM15BattleMainLayerFvPN7cocos2d11EventCustomEEEPS3_St12_PlaceholderILi1EEEEE10_M_managerERSt9_Any_dataRKSG_St18_Manager_operation
_ZNSt14_Function_base13_Base_managerISt5_BindIFSt7_Mem_fnIM15BattleMainLayerFvPN7cocos2d4NodeEEEPS3_St12_PlaceholderILi1EEEEE10_M_managerERSt9_Any_dataRKSG_St18_Manager_operation
_ZNSt14_Function_base13_Base_managerISt5_BindIFSt7_Mem_fnIM15ItemClassRankS1FvPN7cocos2d3RefENS4_2ui6Widget14TouchEventTypeEEEPS3_St12_PlaceholderILi1EESE_ILi2EEEEE10_M_managerERSt9_Any_dataRKSK_St18_Manager_operation
_ZNSt14_Function_base13_Base_managerISt5_BindIFSt7_Mem_fnIM15ItemMissionCardFv11ShareResult13SharePlatformEEPS3_St12_PlaceholderILi1EESA_ILi2EEEEE10_M_managerERSt9_Any_dataRKSG_St18_Manager_operation
_ZNSt14_Function_base13_Base_managerISt5_BindIFSt7_Mem_fnIM15ItemMissionCardFvN9CAdPlugin12eVideoResultEiiEEPS3_St12_PlaceholderILi1EESA_ILi2EESA_ILi3EEEEE10_M_managerERSt9_Any_dataRKSH_St18_Manager_operation
_ZNSt14_Function_base13_Base_managerISt5_BindIFSt7_Mem_fnIM15ItemMissionCardFvPN7cocos2d3RefENS4_2ui6Widget14TouchEventTypeEEEPS3_St12_PlaceholderILi1EESE_ILi2EEEEE10_M_managerERSt9_Any_dataRKSK_St18_Manager_operation
_ZNSt14_Function_base13_Base_managerISt5_BindIFSt7_Mem_fnIM15ItemSettingFunsFvPN7cocos2d3RefEEEPS3_St12_PlaceholderILi1EEEEE10_M_managerERSt9_Any_dataRKSG_St18_Manager_operation
_ZNSt14_Function_base13_Base_managerISt5_BindIFSt7_Mem_fnIM15JumpFansManagerFvP16CustomHttpClientP18CustomHttpResponseEEPS3_St12_PlaceholderILi1EESC_ILi2EEEEE10_M_managerERSt9_Any_dataRKSI_St18_Manager_operation
_ZNSt14_Function_base13_Base_managerISt5_BindIFSt7_Mem_fnIM15LuckyBagManagerFv17EventStoreDiamondEEPS3_St12_PlaceholderILi1EEEEE10_M_managerERSt9_Any_dataRKSE_St18_Manager_operation
_ZNSt14_Function_base13_Base_managerISt5_BindIFSt7_Mem_fnIM15RankDataManagerFv15MusicRankRecordEEPS3_St12_PlaceholderILi1EEEEE10_M_managerERSt9_Any_dataRKSE_St18_Manager_operation
_ZNSt14_Function_base13_Base_managerISt5_BindIFSt7_Mem_fnIM15RankDataManagerFv8CRankingEEPS3_St12_PlaceholderILi1EEEEE10_M_managerERSt9_Any_dataRKSE_St18_Manager_operation
_ZNSt14_Function_base13_Base_managerISt5_BindIFSt7_Mem_fnIM15RankDataManagerFvi8CRankingEEPS3_St12_PlaceholderILi1EES9_ILi2EEEEE10_M_managerERSt9_Any_dataRKSF_St18_Manager_operation
_ZNSt14_Function_base13_Base_managerISt5_BindIFSt7_Mem_fnIM15UIClassBoxFirstFbPN7cocos2d5TouchEPNS4_5EventEEEPS3_St12_PlaceholderILi1EESD_ILi2EEEEE10_M_managerERSt9_Any_dataRKSJ_St18_Manager_operation
_ZNSt14_Function_base13_Base_managerISt5_BindIFSt7_Mem_fnIM15UIClassBoxFirstFvPN7cocos2d5TouchEPNS4_5EventEEEPS3_St12_PlaceholderILi1EESD_ILi2EEEEE10_M_managerERSt9_Any_dataRKSJ_St18_Manager_operation
_ZNSt14_Function_base13_Base_managerISt5_BindIFSt7_Mem_fnIM15UIClassRoomHomeFvPN7cocos2d11EventCustomEEEPS3_St12_PlaceholderILi1EEEEE10_M_managerERSt9_Any_dataRKSG_St18_Manager_operation
_ZNSt14_Function_base13_Base_managerISt5_BindIFSt7_Mem_fnIM15UIDailyTaskGiftFbPN7cocos2d5TouchEPNS4_5EventEEEPS3_St12_PlaceholderILi1EESD_ILi2EEEEE10_M_managerERSt9_Any_dataRKSJ_St18_Manager_operation
_ZNSt14_Function_base13_Base_managerISt5_BindIFSt7_Mem_fnIM15UIDailyTaskGiftFvPN7cocos2d5TouchEPNS4_5EventEEEPS3_St12_PlaceholderILi1EESD_ILi2EEEEE10_M_managerERSt9_Any_dataRKSJ_St18_Manager_operation
_ZNSt14_Function_base13_Base_managerISt5_BindIFSt7_Mem_fnIM15UIJourneyResultFbPN7cocos2d5TouchEPNS4_5EventEEEPS3_St12_PlaceholderILi1EESD_ILi2EEEEE10_M_managerERSt9_Any_dataRKSJ_St18_Manager_operation
_ZNSt14_Function_base13_Base_managerISt5_BindIFSt7_Mem_fnIM15UIJourneyResultFvN7cocos2d13EventKeyboard7KeyCodeEPNS4_5EventEEEPS3_St12_PlaceholderILi1EESD_ILi2EEEEE10_M_managerERSt9_Any_dataRKSJ_St18_Manager_operation
_ZNSt14_Function_base13_Base_managerISt5_BindIFSt7_Mem_fnIM15UIJourneyResultFvP14DiamondDataRevEEPS3_St12_PlaceholderILi1EEEEE10_M_managerERSt9_Any_dataRKSF_St18_Manager_operation
_ZNSt14_Function_base13_Base_managerISt5_BindIFSt7_Mem_fnIM15UIJourneyResultFvPN7cocos2d3RefEEEPS3_St12_PlaceholderILi1EEEEE10_M_managerERSt9_Any_dataRKSG_St18_Manager_operation
_ZNSt14_Function_base13_Base_managerISt5_BindIFSt7_Mem_fnIM15UIJourneyResultFvPN7cocos2d5TouchEPNS4_5EventEEEPS3_St12_PlaceholderILi1EESD_ILi2EEEEE10_M_managerERSt9_Any_dataRKSJ_St18_Manager_operation
_ZNSt14_Function_base13_Base_managerISt5_BindIFSt7_Mem_fnIM15UINetPicManagerFvP13PicHttpClientP15PicHttpResponseEEPS3_St12_PlaceholderILi1EESC_ILi2EEEEE10_M_managerERSt9_Any_dataRKSI_St18_Manager_operation
_ZNSt14_Function_base13_Base_managerISt5_BindIFSt7_Mem_fnIM15UINewEpochMusicFbPN7cocos2d5TouchEPNS4_5EventEEEPS3_St12_PlaceholderILi1EESD_ILi2EEEEE10_M_managerERSt9_Any_dataRKSJ_St18_Manager_operation
_ZNSt14_Function_base13_Base_managerISt5_BindIFSt7_Mem_fnIM15UINewEpochMusicFvPN7cocos2d5TouchEPNS4_5EventEEEPS3_St12_PlaceholderILi1EESD_ILi2EEEEE10_M_managerERSt9_Any_dataRKSJ_St18_Manager_operation
_ZNSt14_Function_base13_Base_managerISt5_BindIFSt7_Mem_fnIM15UINewGuideLayerFbPN7cocos2d5TouchEPNS4_5EventEEEPS3_St12_PlaceholderILi1EESD_ILi2EEEEE10_M_managerERSt9_Any_dataRKSJ_St18_Manager_operation
_ZNSt14_Function_base13_Base_managerISt5_BindIFSt7_Mem_fnIM15UINewGuideLayerFvPN7cocos2d5TouchEPNS4_5EventEEEPS3_St12_PlaceholderILi1EESD_ILi2EEEEE10_M_managerERSt9_Any_dataRKSJ_St18_Manager_operation
_ZNSt14_Function_base13_Base_managerISt5_BindIFSt7_Mem_fnIM15UIPianistReviveFvN9CAdPlugin12eVideoResultEiiEEPS3_St12_PlaceholderILi1EESA_ILi2EESA_ILi3EEEEE10_M_managerERSt9_Any_dataRKSH_St18_Manager_operation
_ZNSt14_Function_base13_Base_managerISt5_BindIFSt7_Mem_fnIM15UIStoreTimeGiftFbPN7cocos2d5TouchEPNS4_5EventEEEPS3_St12_PlaceholderILi1EESD_ILi2EEEEE10_M_managerERSt9_Any_dataRKSJ_St18_Manager_operation
_ZNSt14_Function_base13_Base_managerISt5_BindIFSt7_Mem_fnIM15UIStoreTimeGiftFvPN7cocos2d3RefEEEPS3_St12_PlaceholderILi1EEEEE10_M_managerERSt9_Any_dataRKSG_St18_Manager_operation
_ZNSt14_Function_base13_Base_managerISt5_BindIFSt7_Mem_fnIM15UIStoreTimeGiftFvPN7cocos2d5TouchEPNS4_5EventEEEPS3_St12_PlaceholderILi1EESD_ILi2EEEEE10_M_managerERSt9_Any_dataRKSJ_St18_Manager_operation
_ZNSt14_Function_base13_Base_managerISt5_BindIFSt7_Mem_fnIM15UIXmasShareTreeFv11ShareResult13SharePlatformEEPS3_St12_PlaceholderILi1EESA_ILi2EEEEE10_M_managerERSt9_Any_dataRKSG_St18_Manager_operation
_ZNSt14_Function_base13_Base_managerISt5_BindIFSt7_Mem_fnIM15UIXmasShareTreeFvbSsEEPS3_St12_PlaceholderILi1EES8_ILi2EEEEE10_M_managerERSt9_Any_dataRKSE_St18_Manager_operation
_ZNSt14_Function_base13_Base_managerISt5_BindIFSt7_Mem_fnIM15UIXmasTowerGiftFbPN7cocos2d5TouchEPNS4_5EventEEEPS3_St12_PlaceholderILi1EESD_ILi2EEEEE10_M_managerERSt9_Any_dataRKSJ_St18_Manager_operation
_ZNSt14_Function_base13_Base_managerISt5_BindIFSt7_Mem_fnIM15UIXmasTowerGiftFvPN7cocos2d5TouchEPNS4_5EventEEEPS3_St12_PlaceholderILi1EESD_ILi2EEEEE10_M_managerERSt9_Any_dataRKSJ_St18_Manager_operation
_ZNSt14_Function_base13_Base_managerISt5_BindIFSt7_Mem_fnIM16BattleTableLayerFvRKSt6vectorIPN7cocos2d5TouchESaIS7_EEPNS5_5EventEEEPS3_St12_PlaceholderILi1EESI_ILi2EEEEE10_M_managerERSt9_Any_dataRKSO_St18_Manager_operation
_ZNSt14_Function_base13_Base_managerISt5_BindIFSt7_Mem_fnIM16BattleTableLayerFvvEEPS3_EEE10_M_managerERSt9_Any_dataRKSB_St18_Manager_operation
_ZNSt14_Function_base13_Base_managerISt5_BindIFSt7_Mem_fnIM16DailyTaskManagerFvN9CAdPlugin12eVideoResultEiiEEPS3_St12_PlaceholderILi1EESA_ILi2EESA_ILi3EEEEE10_M_managerERSt9_Any_dataRKSH_St18_Manager_operation
_ZNSt14_Function_base13_Base_managerISt5_BindIFSt7_Mem_fnIM16DressGiftManagerFv17EventStoreDiamondEEPS3_St12_PlaceholderILi1EEEEE10_M_managerERSt9_Any_dataRKSE_St18_Manager_operation
_ZNSt14_Function_base13_Base_managerISt5_BindIFSt7_Mem_fnIM16ItemMusicCardKeyFvPN7cocos2d3RefEEEPS3_St12_PlaceholderILi1EEEEE10_M_managerERSt9_Any_dataRKSG_St18_Manager_operation
_ZNSt14_Function_base13_Base_managerISt5_BindIFSt7_Mem_fnIM16ItemMusicCardKeyFvPN7cocos2d3RefENS4_2ui6Widget14TouchEventTypeEEEPS3_St12_PlaceholderILi1EESE_ILi2EEEEE10_M_managerERSt9_Any_dataRKSK_St18_Manager_operation
_ZNSt14_Function_base13_Base_managerISt5_BindIFSt7_Mem_fnIM16ItemRankJumpFansFvPN7cocos2d3RefEEEPS3_St12_PlaceholderILi1EEEEE10_M_managerERSt9_Any_dataRKSG_St18_Manager_operation
_ZNSt14_Function_base13_Base_managerISt5_BindIFSt7_Mem_fnIM16PumpkinCurveJumpFbPN7cocos2d5TouchEPNS4_5EventEEEPS3_St12_PlaceholderILi1EESD_ILi2EEEEE10_M_managerERSt9_Any_dataRKSJ_St18_Manager_operation
_ZNSt14_Function_base13_Base_managerISt5_BindIFSt7_Mem_fnIM16PumpkinCurveJumpFvPN7cocos2d5TouchEPNS4_5EventEEEPS3_St12_PlaceholderILi1EESD_ILi2EEEEE10_M_managerERSt9_Any_dataRKSJ_St18_Manager_operation
_ZNSt14_Function_base13_Base_managerISt5_BindIFSt7_Mem_fnIM16TouchShieldLayerFbPN7cocos2d5TouchEPNS4_5EventEEEPS3_St12_PlaceholderILi1EESD_ILi2EEEEE10_M_managerERSt9_Any_dataRKSJ_St18_Manager_operation
_ZNSt14_Function_base13_Base_managerISt5_BindIFSt7_Mem_fnIM16TouchShieldLayerFvPN7cocos2d5TouchEPNS4_5EventEEEPS3_St12_PlaceholderILi1EESD_ILi2EEEEE10_M_managerERSt9_Any_dataRKSJ_St18_Manager_operation
_ZNSt14_Function_base13_Base_managerISt5_BindIFSt7_Mem_fnIM16UIAssistiveTouchFbPN7cocos2d5TouchEPNS4_5EventEEEPS3_St12_PlaceholderILi1EESD_ILi2EEEEE10_M_managerERSt9_Any_dataRKSJ_St18_Manager_operation
_ZNSt14_Function_base13_Base_managerISt5_BindIFSt7_Mem_fnIM16UIAssistiveTouchFvPN7cocos2d5TouchEPNS4_5EventEEEPS3_St12_PlaceholderILi1EESD_ILi2EEEEE10_M_managerERSt9_Any_dataRKSJ_St18_Manager_operation
_ZNSt14_Function_base13_Base_managerISt5_BindIFSt7_Mem_fnIM16UIDialogVipLoginFbPN7cocos2d5TouchEPNS4_5EventEEEPS3_St12_PlaceholderILi1EESD_ILi2EEEEE10_M_managerERSt9_Any_dataRKSJ_St18_Manager_operation
_ZNSt14_Function_base13_Base_managerISt5_BindIFSt7_Mem_fnIM16UIDialogVipLoginFvPN7cocos2d5TouchEPNS4_5EventEEEPS3_St12_PlaceholderILi1EESD_ILi2EEEEE10_M_managerERSt9_Any_dataRKSJ_St18_Manager_operation
_ZNSt14_Function_base13_Base_managerISt5_BindIFSt7_Mem_fnIM16UIFBLogoutNotifyFbPN7cocos2d5TouchEPNS4_5EventEEEPS3_St12_PlaceholderILi1EESD_ILi2EEEEE10_M_managerERSt9_Any_dataRKSJ_St18_Manager_operation
_ZNSt14_Function_base13_Base_managerISt5_BindIFSt7_Mem_fnIM16UIFBLogoutNotifyFvPN7cocos2d5TouchEPNS4_5EventEEEPS3_St12_PlaceholderILi1EESD_ILi2EEEEE10_M_managerERSt9_Any_dataRKSJ_St18_Manager_operation
_ZNSt14_Function_base13_Base_managerISt5_BindIFSt7_Mem_fnIM16UIItemBuySuccessFbPN7cocos2d5TouchEPNS4_5EventEEEPS3_St12_PlaceholderILi1EESD_ILi2EEEEE10_M_managerERSt9_Any_dataRKSJ_St18_Manager_operation
_ZNSt14_Function_base13_Base_managerISt5_BindIFSt7_Mem_fnIM16UIItemBuySuccessFvPN7cocos2d5TouchEPNS4_5EventEEEPS3_St12_PlaceholderILi1EESD_ILi2EEEEE10_M_managerERSt9_Any_dataRKSJ_St18_Manager_operation
_ZNSt14_Function_base13_Base_managerISt5_BindIFSt7_Mem_fnIM16UINewGuideResultFvPN7cocos2d3RefEEEPS3_St12_PlaceholderILi1EEEEE10_M_managerERSt9_Any_dataRKSG_St18_Manager_operation
_ZNSt14_Function_base13_Base_managerISt5_BindIFSt7_Mem_fnIM16UIRankSingleSongFbPN7cocos2d5TouchEPNS4_5EventEEEPS3_St12_PlaceholderILi1EESD_ILi2EEEEE10_M_managerERSt9_Any_dataRKSJ_St18_Manager_operation
_ZNSt14_Function_base13_Base_managerISt5_BindIFSt7_Mem_fnIM16UIRankSingleSongFvPN7cocos2d3RefEEEPS3_St12_PlaceholderILi1EEEEE10_M_managerERSt9_Any_dataRKSG_St18_Manager_operation
_ZNSt14_Function_base13_Base_managerISt5_BindIFSt7_Mem_fnIM16UIRankSingleSongFvbSsEEPS3_St12_PlaceholderILi1EES8_ILi2EEEEE10_M_managerERSt9_Any_dataRKSE_St18_Manager_operation
_ZNSt14_Function_base13_Base_managerISt5_BindIFSt7_Mem_fnIM16UIShareChallengeFbPN7cocos2d5TouchEPNS4_5EventEEEPS3_St12_PlaceholderILi1EESD_ILi2EEEEE10_M_managerERSt9_Any_dataRKSJ_St18_Manager_operation
_ZNSt14_Function_base13_Base_managerISt5_BindIFSt7_Mem_fnIM16UIShareChallengeFv11ShareResult13SharePlatformEEPS3_St12_PlaceholderILi1EESA_ILi2EEEEE10_M_managerERSt9_Any_dataRKSG_St18_Manager_operation
_ZNSt14_Function_base13_Base_managerISt5_BindIFSt7_Mem_fnIM16UIShareChallengeFvbSsEEPS3_St12_PlaceholderILi1EES8_ILi2EEEEE10_M_managerERSt9_Any_dataRKSE_St18_Manager_operation
_ZNSt14_Function_base13_Base_managerISt5_BindIFSt7_Mem_fnIM17CAnimationManagerFvPN10cocostudio8timeline5FrameEEEPS3_St12_PlaceholderILi1EEEEE10_M_managerERSt9_Any_dataRKSH_St18_Manager_operation
_ZNSt14_Function_base13_Base_managerISt5_BindIFSt7_Mem_fnIM17FriendTaskManagerFv11ValueRecordEEPS3_St12_PlaceholderILi1EEEEE10_M_managerERSt9_Any_dataRKSE_St18_Manager_operation
_ZNSt14_Function_base13_Base_managerISt5_BindIFSt7_Mem_fnIM17FriendTaskManagerFvP14DiamondDataRevEEPS3_St12_PlaceholderILi1EEEEE10_M_managerERSt9_Any_dataRKSF_St18_Manager_operation
_ZNSt14_Function_base13_Base_managerISt5_BindIFSt7_Mem_fnIM17ItemInviteFriendsFv11ShareResult13SharePlatformEEPS3_St12_PlaceholderILi1EESA_ILi2EEEEE10_M_managerERSt9_Any_dataRKSG_St18_Manager_operation
_ZNSt14_Function_base13_Base_managerISt5_BindIFSt7_Mem_fnIM17ItemMusicLevelTryFvPN7cocos2d3RefENS4_2ui6Widget14TouchEventTypeEEEPS3_St12_PlaceholderILi1EESE_ILi2EEEEE10_M_managerERSt9_Any_dataRKSK_St18_Manager_operation
_ZNSt14_Function_base13_Base_managerISt5_BindIFSt7_Mem_fnIM17ItemPlayLockedPayFvPN7cocos2d3RefEEEPS3_St12_PlaceholderILi1EEEEE10_M_managerERSt9_Any_dataRKSG_St18_Manager_operation
_ZNSt14_Function_base13_Base_managerISt5_BindIFSt7_Mem_fnIM17ItemPlayLockedPayFvPN7cocos2d3RefENS4_2ui6Widget14TouchEventTypeEEEPS3_St12_PlaceholderILi1EESE_ILi2EEEEE10_M_managerERSt9_Any_dataRKSK_St18_Manager_operation
_ZNSt14_Function_base13_Base_managerISt5_BindIFSt7_Mem_fnIM17ItemSelectionTaskFvN9CAdPlugin12eVideoResultEiiEEPS3_St12_PlaceholderILi1EESA_ILi2EESA_ILi3EEEEE10_M_managerERSt9_Any_dataRKSH_St18_Manager_operation
_ZNSt14_Function_base13_Base_managerISt5_BindIFSt7_Mem_fnIM17KInstDownloadTaskFvRKN19MusicSyncDownloader5ErrorEEEPS3_St12_PlaceholderILi1EEEEE10_M_managerERSt9_Any_dataRKSH_St18_Manager_operation
_ZNSt14_Function_base13_Base_managerISt5_BindIFSt7_Mem_fnIM17KInstDownloadTaskFvRKSsS5_S5_EEPS3_St12_PlaceholderILi1EESA_ILi2EESA_ILi3EEEEE10_M_managerERSt9_Any_dataRKSH_St18_Manager_operation
_ZNSt14_Function_base13_Base_managerISt5_BindIFSt7_Mem_fnIM17KInstDownloadTaskFvddRKSsS5_EEPS3_St12_PlaceholderILi1EESA_ILi2EESA_ILi3EESA_ILi4EEEEE10_M_managerERSt9_Any_dataRKSI_St18_Manager_operation
_ZNSt14_Function_base13_Base_managerISt5_BindIFSt7_Mem_fnIM17UICachePicManagerFvP13PicHttpClientP15PicHttpResponseEEPS3_St12_PlaceholderILi1EESC_ILi2EEEEE10_M_managerERSt9_Any_dataRKSI_St18_Manager_operation
_ZNSt14_Function_base13_Base_managerISt5_BindIFSt7_Mem_fnIM17UIDialogRankTotalFbPN7cocos2d5TouchEPNS4_5EventEEEPS3_St12_PlaceholderILi1EESD_ILi2EEEEE10_M_managerERSt9_Any_dataRKSJ_St18_Manager_operation
_ZNSt14_Function_base13_Base_managerISt5_BindIFSt7_Mem_fnIM17UIDialogRankTotalFvPN7cocos2d3RefEEEPS3_St12_PlaceholderILi1EEEEE10_M_managerERSt9_Any_dataRKSG_St18_Manager_operation
_ZNSt14_Function_base13_Base_managerISt5_BindIFSt7_Mem_fnIM17UIDialogRankTotalFvPN7cocos2d5TouchEPNS4_5EventEEEPS3_St12_PlaceholderILi1EESD_ILi2EEEEE10_M_managerERSt9_Any_dataRKSJ_St18_Manager_operation
_ZNSt14_Function_base13_Base_managerISt5_BindIFSt7_Mem_fnIM17UIStarChestRewardFvN9CAdPlugin12eVideoResultEiiEEPS3_St12_PlaceholderILi1EESA_ILi2EESA_ILi3EEEEE10_M_managerERSt9_Any_dataRKSH_St18_Manager_operation
_ZNSt14_Function_base13_Base_managerISt5_BindIFSt7_Mem_fnIM18ItemPlayLockedStarFbPN7cocos2d5TouchEPNS4_5EventEEEPS3_St12_PlaceholderILi1EESD_ILi2EEEEE10_M_managerERSt9_Any_dataRKSJ_St18_Manager_operation
_ZNSt14_Function_base13_Base_managerISt5_BindIFSt7_Mem_fnIM18ItemPlayLockedStarFvPN7cocos2d3RefENS4_2ui6Widget14TouchEventTypeEEEPS3_St12_PlaceholderILi1EESE_ILi2EEEEE10_M_managerERSt9_Any_dataRKSK_St18_Manager_operation
_ZNSt14_Function_base13_Base_managerISt5_BindIFSt7_Mem_fnIM18ItemPlayLockedStarFvPN7cocos2d5TouchEPNS4_5EventEEEPS3_St12_PlaceholderILi1EESD_ILi2EEEEE10_M_managerERSt9_Any_dataRKSJ_St18_Manager_operation
_ZNSt14_Function_base13_Base_managerISt5_BindIFSt7_Mem_fnIM18UIClassRoomWelcomeFbPN7cocos2d5TouchEPNS4_5EventEEEPS3_St12_PlaceholderILi1EESD_ILi2EEEEE10_M_managerERSt9_Any_dataRKSJ_St18_Manager_operation
_ZNSt14_Function_base13_Base_managerISt5_BindIFSt7_Mem_fnIM18UIClassRoomWelcomeFvPN7cocos2d5TouchEPNS4_5EventEEEPS3_St12_PlaceholderILi1EESD_ILi2EEEEE10_M_managerERSt9_Any_dataRKSJ_St18_Manager_operation
_ZNSt14_Function_base13_Base_managerISt5_BindIFSt7_Mem_fnIM18UIDialogOpenAD_NewFbPN7cocos2d5TouchEPNS4_5EventEEEPS3_St12_PlaceholderILi1EESD_ILi2EEEEE10_M_managerERSt9_Any_dataRKSJ_St18_Manager_operation
_ZNSt14_Function_base13_Base_managerISt5_BindIFSt7_Mem_fnIM18UIDialogOpenAD_NewFvPN7cocos2d5TouchEPNS4_5EventEEEPS3_St12_PlaceholderILi1EESD_ILi2EEEEE10_M_managerERSt9_Any_dataRKSJ_St18_Manager_operation
_ZNSt14_Function_base13_Base_managerISt5_BindIFSt7_Mem_fnIM18UIDialogRankSingleFbPN7cocos2d5TouchEPNS4_5EventEEEPS3_St12_PlaceholderILi1EESD_ILi2EEEEE10_M_managerERSt9_Any_dataRKSJ_St18_Manager_operation
_ZNSt14_Function_base13_Base_managerISt5_BindIFSt7_Mem_fnIM18UIDialogRankSingleFvPN7cocos2d3RefEEEPS3_St12_PlaceholderILi1EEEEE10_M_managerERSt9_Any_dataRKSG_St18_Manager_operation
_ZNSt14_Function_base13_Base_managerISt5_BindIFSt7_Mem_fnIM18UIDialogRankSingleFvPN7cocos2d5TouchEPNS4_5EventEEEPS3_St12_PlaceholderILi1EESD_ILi2EEEEE10_M_managerERSt9_Any_dataRKSJ_St18_Manager_operation
_ZNSt14_Function_base13_Base_managerISt5_BindIFSt7_Mem_fnIM18UIDialogVipWelcomeFbPN7cocos2d5TouchEPNS4_5EventEEEPS3_St12_PlaceholderILi1EESD_ILi2EEEEE10_M_managerERSt9_Any_dataRKSJ_St18_Manager_operation
_ZNSt14_Function_base13_Base_managerISt5_BindIFSt7_Mem_fnIM18UIDialogVipWelcomeFv11ShareResult13SharePlatformEEPS3_St12_PlaceholderILi1EESA_ILi2EEEEE10_M_managerERSt9_Any_dataRKSG_St18_Manager_operation
_ZNSt14_Function_base13_Base_managerISt5_BindIFSt7_Mem_fnIM18UIDialogVipWelcomeFvPN7cocos2d3RefEEEPS3_St12_PlaceholderILi1EEEEE10_M_managerERSt9_Any_dataRKSG_St18_Manager_operation
_ZNSt14_Function_base13_Base_managerISt5_BindIFSt7_Mem_fnIM18UIDialogVipWelcomeFvPN7cocos2d5TouchEPNS4_5EventEEEPS3_St12_PlaceholderILi1EESD_ILi2EEEEE10_M_managerERSt9_Any_dataRKSJ_St18_Manager_operation
_ZNSt14_Function_base13_Base_managerISt5_BindIFSt7_Mem_fnIM18UIDialogVipWelcomeFvbRKSsEEPS3_St12_PlaceholderILi1EESA_ILi2EEEEE10_M_managerERSt9_Any_dataRKSG_St18_Manager_operation
_ZNSt14_Function_base13_Base_managerISt5_BindIFSt7_Mem_fnIM18UINewEpochDownloadFbPN7cocos2d5TouchEPNS4_5EventEEEPS3_St12_PlaceholderILi1EESD_ILi2EEEEE10_M_managerERSt9_Any_dataRKSJ_St18_Manager_operation
_ZNSt14_Function_base13_Base_managerISt5_BindIFSt7_Mem_fnIM18UINewEpochDownloadFvPN7cocos2d5TouchEPNS4_5EventEEEPS3_St12_PlaceholderILi1EESD_ILi2EEEEE10_M_managerERSt9_Any_dataRKSJ_St18_Manager_operation
_ZNSt14_Function_base13_Base_managerISt5_BindIFSt7_Mem_fnIM19ItemAchieveMentCardFvPN7cocos2d3RefENS4_2ui6Widget14TouchEventTypeEEEPS3_St12_PlaceholderILi1EESE_ILi2EEEEE10_M_managerERSt9_Any_dataRKSK_St18_Manager_operation
_ZNSt14_Function_base13_Base_managerISt5_BindIFSt7_Mem_fnIM19ItemPlayLockedLevelFvPN7cocos2d3RefENS4_2ui6Widget14TouchEventTypeEEEPS3_St12_PlaceholderILi1EESE_ILi2EEEEE10_M_managerERSt9_Any_dataRKSK_St18_Manager_operation
_ZNSt14_Function_base13_Base_managerISt5_BindIFSt7_Mem_fnIM19ItemReportDebugInfoFvPN7cocos2d3RefENS4_2ui6Widget14TouchEventTypeEEEPS3_St12_PlaceholderILi1EESE_ILi2EEEEE10_M_managerERSt9_Any_dataRKSK_St18_Manager_operation
_ZNSt14_Function_base13_Base_managerISt5_BindIFSt7_Mem_fnIM19UICdCollectionShareFv11ShareResult13SharePlatformEEPS3_St12_PlaceholderILi1EESA_ILi2EEEEE10_M_managerERSt9_Any_dataRKSG_St18_Manager_operation
_ZNSt14_Function_base13_Base_managerISt5_BindIFSt7_Mem_fnIM19UICloverRewardLayerFvN9CAdPlugin12eVideoResultEiiEEPS3_St12_PlaceholderILi1EESA_ILi2EESA_ILi3EEEEE10_M_managerERSt9_Any_dataRKSH_St18_Manager_operation
_ZNSt14_Function_base13_Base_managerISt5_BindIFSt7_Mem_fnIM19UIHomeDialogFBLoginFbPN7cocos2d5TouchEPNS4_5EventEEEPS3_St12_PlaceholderILi1EESD_ILi2EEEEE10_M_managerERSt9_Any_dataRKSJ_St18_Manager_operation
_ZNSt14_Function_base13_Base_managerISt5_BindIFSt7_Mem_fnIM19UIHomeDialogFBLoginFvPN7cocos2d5TouchEPNS4_5EventEEEPS3_St12_PlaceholderILi1EESD_ILi2EEEEE10_M_managerERSt9_Any_dataRKSJ_St18_Manager_operation
_ZNSt14_Function_base13_Base_managerISt5_BindIFSt7_Mem_fnIM19UIMasterMatchRewardFbPN7cocos2d5TouchEPNS4_5EventEEEPS3_St12_PlaceholderILi1EESD_ILi2EEEEE10_M_managerERSt9_Any_dataRKSJ_St18_Manager_operation
_ZNSt14_Function_base13_Base_managerISt5_BindIFSt7_Mem_fnIM19UIMasterMatchRewardFvPN10cocostudio8timeline5FrameEEEPS3_St12_PlaceholderILi1EEEEE10_M_managerERSt9_Any_dataRKSH_St18_Manager_operation
_ZNSt14_Function_base13_Base_managerISt5_BindIFSt7_Mem_fnIM19UIMasterMatchRewardFvPN7cocos2d5TouchEPNS4_5EventEEEPS3_St12_PlaceholderILi1EESD_ILi2EEEEE10_M_managerERSt9_Any_dataRKSJ_St18_Manager_operation
_ZNSt14_Function_base13_Base_managerISt5_BindIFSt7_Mem_fnIM19UIResultShareBannerFv11ShareResult13SharePlatformEEPS3_St12_PlaceholderILi1EESA_ILi2EEEEE10_M_managerERSt9_Any_dataRKSG_St18_Manager_operation
_ZNSt14_Function_base13_Base_managerISt5_BindIFSt7_Mem_fnIM19UIResultShareBannerFvbSsEEPS3_St12_PlaceholderILi1EES8_ILi2EEEEE10_M_managerERSt9_Any_dataRKSE_St18_Manager_operation
_ZNSt14_Function_base13_Base_managerISt5_BindIFSt7_Mem_fnIM19UIStoreDiamondNewCNFbPN7cocos2d5TouchEPNS4_5EventEEEPS3_St12_PlaceholderILi1EESD_ILi2EEEEE10_M_managerERSt9_Any_dataRKSJ_St18_Manager_operation
_ZNSt14_Function_base13_Base_managerISt5_BindIFSt7_Mem_fnIM19UIStoreDiamondNewCNFv17EventStoreDiamondEEPS3_St12_PlaceholderILi1EEEEE10_M_managerERSt9_Any_dataRKSE_St18_Manager_operation
_ZNSt14_Function_base13_Base_managerISt5_BindIFSt7_Mem_fnIM19UIStoreDiamondNewCNFvPN7cocos2d3RefEEEPS3_St12_PlaceholderILi1EEEEE10_M_managerERSt9_Any_dataRKSG_St18_Manager_operation
_ZNSt14_Function_base13_Base_managerISt5_BindIFSt7_Mem_fnIM19UIStoreDiamondNewCNFvPN7cocos2d5TouchEPNS4_5EventEEEPS3_St12_PlaceholderILi1EESD_ILi2EEEEE10_M_managerERSt9_Any_dataRKSJ_St18_Manager_operation
_ZNSt14_Function_base13_Base_managerISt5_BindIFSt7_Mem_fnIM20SelectionTaskManagerFvN9CAdPlugin12eVideoResultEiiEEPS3_St12_PlaceholderILi1EESA_ILi2EESA_ILi3EEEEE10_M_managerERSt9_Any_dataRKSH_St18_Manager_operation
_ZNSt14_Function_base13_Base_managerISt5_BindIFSt7_Mem_fnIM20UICDCollectionResultFbPN7cocos2d5TouchEPNS4_5EventEEEPS3_St12_PlaceholderILi1EESD_ILi2EEEEE10_M_managerERSt9_Any_dataRKSJ_St18_Manager_operation
_ZNSt14_Function_base13_Base_managerISt5_BindIFSt7_Mem_fnIM20UICDCollectionResultFvPN7cocos2d3RefEEEPS3_St12_PlaceholderILi1EEEEE10_M_managerERSt9_Any_dataRKSG_St18_Manager_operation
_ZNSt14_Function_base13_Base_managerISt5_BindIFSt7_Mem_fnIM20UICDCollectionResultFvPN7cocos2d5TouchEPNS4_5EventEEEPS3_St12_PlaceholderILi1EESD_ILi2EEEEE10_M_managerERSt9_Any_dataRKSJ_St18_Manager_operation
_ZNSt14_Function_base13_Base_managerISt5_BindIFSt7_Mem_fnIM20UICloverRankMainLineFbPN7cocos2d5TouchEPNS4_5EventEEEPS3_St12_PlaceholderILi1EESD_ILi2EEEEE10_M_managerERSt9_Any_dataRKSJ_St18_Manager_operation
_ZNSt14_Function_base13_Base_managerISt5_BindIFSt7_Mem_fnIM20UICloverRankMainLineFvPN7cocos2d5TouchEPNS4_5EventEEEPS3_St12_PlaceholderILi1EESD_ILi2EEEEE10_M_managerERSt9_Any_dataRKSJ_St18_Manager_operation
_ZNSt14_Function_base13_Base_managerISt5_BindIFSt7_Mem_fnIM20UIJourneyResultChestFbPN7cocos2d5TouchEPNS4_5EventEEEPS3_St12_PlaceholderILi1EESD_ILi2EEEEE10_M_managerERSt9_Any_dataRKSJ_St18_Manager_operation
_ZNSt14_Function_base13_Base_managerISt5_BindIFSt7_Mem_fnIM20UIJourneyResultChestFvPN7cocos2d5TouchEPNS4_5EventEEEPS3_St12_PlaceholderILi1EESD_ILi2EEEEE10_M_managerERSt9_Any_dataRKSJ_St18_Manager_operation
_ZNSt14_Function_base13_Base_managerISt5_BindIFSt7_Mem_fnIM20UIShareChooseDialogeFbPN7cocos2d5TouchEPNS4_5EventEEEPS3_St12_PlaceholderILi1EESD_ILi2EEEEE10_M_managerERSt9_Any_dataRKSJ_St18_Manager_operation
_ZNSt14_Function_base13_Base_managerISt5_BindIFSt7_Mem_fnIM20UIShareChooseDialogeFv11ShareResult13SharePlatformEEPS3_St12_PlaceholderILi1EESA_ILi2EEEEE10_M_managerERSt9_Any_dataRKSG_St18_Manager_operation
_ZNSt14_Function_base13_Base_managerISt5_BindIFSt7_Mem_fnIM20UIShareChooseDialogeFvPN7cocos2d3RefEEEPS3_St12_PlaceholderILi1EEEEE10_M_managerERSt9_Any_dataRKSG_St18_Manager_operation
_ZNSt14_Function_base13_Base_managerISt5_BindIFSt7_Mem_fnIM20UIShareChooseDialogeFvPN7cocos2d5TouchEPNS4_5EventEEEPS3_St12_PlaceholderILi1EESD_ILi2EEEEE10_M_managerERSt9_Any_dataRKSJ_St18_Manager_operation
_ZNSt14_Function_base13_Base_managerISt5_BindIFSt7_Mem_fnIM20UIWearHeapPhonesTipsFvPN7cocos2d3RefENS4_2ui6Widget14TouchEventTypeEEEPS3_St12_PlaceholderILi1EESE_ILi2EEEEE10_M_managerERSt9_Any_dataRKSK_St18_Manager_operation
_ZNSt14_Function_base13_Base_managerISt5_BindIFSt7_Mem_fnIM21HalloweenPumpkinLayerFbPN7cocos2d5TouchEPNS4_5EventEEEPS3_St12_PlaceholderILi1EESD_ILi2EEEEE10_M_managerERSt9_Any_dataRKSJ_St18_Manager_operation
_ZNSt14_Function_base13_Base_managerISt5_BindIFSt7_Mem_fnIM21HalloweenPumpkinLayerFvPN7cocos2d5TouchEPNS4_5EventEEEPS3_St12_PlaceholderILi1EESD_ILi2EEEEE10_M_managerERSt9_Any_dataRKSJ_St18_Manager_operation
_ZNSt14_Function_base13_Base_managerISt5_BindIFSt7_Mem_fnIM21ItemPlayLockedDiamondFvP14DiamondDataRevEEPS3_St12_PlaceholderILi1EEEEE10_M_managerERSt9_Any_dataRKSF_St18_Manager_operation
_ZNSt14_Function_base13_Base_managerISt5_BindIFSt7_Mem_fnIM21ItemPlayLockedDiamondFvPN7cocos2d11EventCustomEEEPS3_St12_PlaceholderILi1EEEEE10_M_managerERSt9_Any_dataRKSG_St18_Manager_operation
_ZNSt14_Function_base13_Base_managerISt5_BindIFSt7_Mem_fnIM21ItemPlayLockedDiamondFvPN7cocos2d3RefEEEPS3_St12_PlaceholderILi1EEEEE10_M_managerERSt9_Any_dataRKSG_St18_Manager_operation
_ZNSt14_Function_base13_Base_managerISt5_BindIFSt7_Mem_fnIM21ItemPlayLockedDiamondFvPN7cocos2d3RefENS4_2ui6Widget14TouchEventTypeEEEPS3_St12_PlaceholderILi1EESE_ILi2EEEEE10_M_managerERSt9_Any_dataRKSK_St18_Manager_operation
_ZNSt14_Function_base13_Base_managerISt5_BindIFSt7_Mem_fnIM21ItemRankInviteDiamondFvPN7cocos2d3RefENS4_2ui6Widget14TouchEventTypeEEEPS3_St12_PlaceholderILi1EESE_ILi2EEEEE10_M_managerERSt9_Any_dataRKSK_St18_Manager_operation
_ZNSt14_Function_base13_Base_managerISt5_BindIFSt7_Mem_fnIM21ItemTaskInviteDiamondFbPN7cocos2d5TouchEPNS4_5EventEEEPS3_St12_PlaceholderILi1EESD_ILi2EEEEE10_M_managerERSt9_Any_dataRKSJ_St18_Manager_operation
_ZNSt14_Function_base13_Base_managerISt5_BindIFSt7_Mem_fnIM21ItemTaskInviteDiamondFvPN7cocos2d5TouchEPNS4_5EventEEEPS3_St12_PlaceholderILi1EESD_ILi2EEEEE10_M_managerERSt9_Any_dataRKSJ_St18_Manager_operation
_ZNSt14_Function_base13_Base_managerISt5_BindIFSt7_Mem_fnIM21SlideOverlayLongLayerFvvEEPS3_EEE10_M_managerERSt9_Any_dataRKSB_St18_Manager_operation
_ZNSt14_Function_base13_Base_managerISt5_BindIFSt7_Mem_fnIM21StoreDiamondMFManagerFvP13PicHttpClientP15PicHttpResponseEEPS3_St12_PlaceholderILi1EESC_ILi2EEEEE10_M_managerERSt9_Any_dataRKSI_St18_Manager_operation
_ZNSt14_Function_base13_Base_managerISt5_BindIFSt7_Mem_fnIM21UIDialogJourneyReviveFvN9CAdPlugin12eVideoResultEiiEEPS3_St12_PlaceholderILi1EESA_ILi2EESA_ILi3EEEEE10_M_managerERSt9_Any_dataRKSH_St18_Manager_operation
_ZNSt14_Function_base13_Base_managerISt5_BindIFSt7_Mem_fnIM21UIDialogSelectionOpenFvN9CAdPlugin12eVideoResultEiiEEPS3_St12_PlaceholderILi1EESA_ILi2EESA_ILi3EEEEE10_M_managerERSt9_Any_dataRKSH_St18_Manager_operation
_ZNSt14_Function_base13_Base_managerISt5_BindIFSt7_Mem_fnIM21UINewGuideFingerLayerFbPN7cocos2d5TouchEPNS4_5EventEEEPS3_St12_PlaceholderILi1EESD_ILi2EEEEE10_M_managerERSt9_Any_dataRKSJ_St18_Manager_operation
_ZNSt14_Function_base13_Base_managerISt5_BindIFSt7_Mem_fnIM21UINewGuideFingerLayerFvPN7cocos2d5TouchEPNS4_5EventEEEPS3_St12_PlaceholderILi1EESD_ILi2EEEEE10_M_managerERSt9_Any_dataRKSJ_St18_Manager_operation
_ZNSt14_Function_base13_Base_managerISt5_BindIFSt7_Mem_fnIM22BattleFadedStarFieldGLFvvEEPS3_EEE10_M_managerERSt9_Any_dataRKSB_St18_Manager_operation
_ZNSt14_Function_base13_Base_managerISt5_BindIFSt7_Mem_fnIM22BattleRainBackgroundGLFvvEEPS3_EEE10_M_managerERSt9_Any_dataRKSB_St18_Manager_operation
_ZNSt14_Function_base13_Base_managerISt5_BindIFSt7_Mem_fnIM22UIDialogShareRedPacketFbPN7cocos2d5TouchEPNS4_5EventEEEPS3_St12_PlaceholderILi1EESD_ILi2EEEEE10_M_managerERSt9_Any_dataRKSJ_St18_Manager_operation
_ZNSt14_Function_base13_Base_managerISt5_BindIFSt7_Mem_fnIM22UIDialogShareRedPacketFvPN7cocos2d3RefEEEPS3_St12_PlaceholderILi1EEEEE10_M_managerERSt9_Any_dataRKSG_St18_Manager_operation
_ZNSt14_Function_base13_Base_managerISt5_BindIFSt7_Mem_fnIM22UIDialogShareRedPacketFvbEEPS3_St12_PlaceholderILi1EEEEE10_M_managerERSt9_Any_dataRKSD_St18_Manager_operation
_ZNSt14_Function_base13_Base_managerISt5_BindIFSt7_Mem_fnIM22UIDialogVipStateChangeFbPN7cocos2d5TouchEPNS4_5EventEEEPS3_St12_PlaceholderILi1EESD_ILi2EEEEE10_M_managerERSt9_Any_dataRKSJ_St18_Manager_operation
_ZNSt14_Function_base13_Base_managerISt5_BindIFSt7_Mem_fnIM22UIDialogVipStateChangeFvPN7cocos2d5TouchEPNS4_5EventEEEPS3_St12_PlaceholderILi1EESD_ILi2EEEEE10_M_managerERSt9_Any_dataRKSJ_St18_Manager_operation
_ZNSt14_Function_base13_Base_managerISt5_BindIFSt7_Mem_fnIM22UINotificationSettingsFbPN7cocos2d5TouchEPNS4_5EventEEEPS3_St12_PlaceholderILi1EESD_ILi2EEEEE10_M_managerERSt9_Any_dataRKSJ_St18_Manager_operation
_ZNSt14_Function_base13_Base_managerISt5_BindIFSt7_Mem_fnIM22UINotificationSettingsFvPN7cocos2d5TouchEPNS4_5EventEEEPS3_St12_PlaceholderILi1EESD_ILi2EEEEE10_M_managerERSt9_Any_dataRKSJ_St18_Manager_operation
_ZNSt14_Function_base13_Base_managerISt5_BindIFSt7_Mem_fnIM23BattleAloneBackgroundGLFvvEEPS3_EEE10_M_managerERSt9_Any_dataRKSB_St18_Manager_operation
_ZNSt14_Function_base13_Base_managerISt5_BindIFSt7_Mem_fnIM23BattleFadedBackgroundGLFvvEEPS3_EEE10_M_managerERSt9_Any_dataRKSB_St18_Manager_operation
_ZNSt14_Function_base13_Base_managerISt5_BindIFSt7_Mem_fnIM23ItemPlayLockedLevelGoldFvPN7cocos2d3RefENS4_2ui6Widget14TouchEventTypeEEEPS3_St12_PlaceholderILi1EESE_ILi2EEEEE10_M_managerERSt9_Any_dataRKSK_St18_Manager_operation
_ZNSt14_Function_base13_Base_managerISt5_BindIFSt7_Mem_fnIM24BattleAlonePointSpriteGLFvvEEPS3_EEE10_M_managerERSt9_Any_dataRKSB_St18_Manager_operation
_ZNSt14_Function_base13_Base_managerISt5_BindIFSt7_Mem_fnIM24BattleFadedPointSpriteGLFvvEEPS3_EEE10_M_managerERSt9_Any_dataRKSB_St18_Manager_operation
_ZNSt14_Function_base13_Base_managerISt5_BindIFSt7_Mem_fnIM24ItemHomeVideoUnlockMusicFvN9CAdPlugin12eVideoResultEiiEEPS3_St12_PlaceholderILi1EESA_ILi2EESA_ILi3EEEEE10_M_managerERSt9_Any_dataRKSH_St18_Manager_operation
_ZNSt14_Function_base13_Base_managerISt5_BindIFSt7_Mem_fnIM24ItemHomeVideoUnlockMusicFvPN7cocos2d3RefEEEPS3_St12_PlaceholderILi1EEEEE10_M_managerERSt9_Any_dataRKSG_St18_Manager_operation
_ZNSt14_Function_base13_Base_managerISt5_BindIFSt7_Mem_fnIM24UICloverLuckyRewardLayerFvN9CAdPlugin12eVideoResultEiiEEPS3_St12_PlaceholderILi1EESA_ILi2EESA_ILi3EEEEE10_M_managerERSt9_Any_dataRKSH_St18_Manager_operation
_ZNSt14_Function_base13_Base_managerISt5_BindIFSt7_Mem_fnIM24UIDialogVideoUnlockMusicFbPN7cocos2d5TouchEPNS4_5EventEEEPS3_St12_PlaceholderILi1EESD_ILi2EEEEE10_M_managerERSt9_Any_dataRKSJ_St18_Manager_operation
_ZNSt14_Function_base13_Base_managerISt5_BindIFSt7_Mem_fnIM24UIDialogVideoUnlockMusicFvN9CAdPlugin12eVideoResultEiiEEPS3_St12_PlaceholderILi1EESA_ILi2EESA_ILi3EEEEE10_M_managerERSt9_Any_dataRKSH_St18_Manager_operation
_ZNSt14_Function_base13_Base_managerISt5_BindIFSt7_Mem_fnIM24UIDialogVideoUnlockMusicFvP14DiamondDataRevEEPS3_St12_PlaceholderILi1EEEEE10_M_managerERSt9_Any_dataRKSF_St18_Manager_operation
_ZNSt14_Function_base13_Base_managerISt5_BindIFSt7_Mem_fnIM24UIDialogVideoUnlockMusicFvPN7cocos2d5TouchEPNS4_5EventEEEPS3_St12_PlaceholderILi1EESD_ILi2EEEEE10_M_managerERSt9_Any_dataRKSJ_St18_Manager_operation
_ZNSt14_Function_base13_Base_managerISt5_BindIFSt7_Mem_fnIM25BattleDefaultBackgroundGLFvvEEPS3_EEE10_M_managerERSt9_Any_dataRKSB_St18_Manager_operation
_ZNSt14_Function_base13_Base_managerISt5_BindIFSt7_Mem_fnIM25BattleSpectreBackgroundGLFvvEEPS3_EEE10_M_managerERSt9_Any_dataRKSB_St18_Manager_operation
_ZNSt14_Function_base13_Base_managerISt5_BindIFSt7_Mem_fnIM27BattleDespacitoBackgroundGLFvvEEPS3_EEE10_M_managerERSt9_Any_dataRKSB_St18_Manager_operation
_ZNSt14_Function_base13_Base_managerISt5_BindIFSt7_Mem_fnIM28UIDialogSelectionPieceRewardFvN9CAdPlugin12eVideoResultEiiEEPS3_St12_PlaceholderILi1EESA_ILi2EESA_ILi3EEEEE10_M_managerERSt9_Any_dataRKSH_St18_Manager_operation
_ZNSt14_Function_base13_Base_managerISt5_BindIFSt7_Mem_fnIM29BattleAloneDeformBackgroundGLFvvEEPS3_EEE10_M_managerERSt9_Any_dataRKSB_St18_Manager_operation
_ZNSt14_Function_base13_Base_managerISt5_BindIFSt7_Mem_fnIM30BattleDefaultBackgroundBokehGLFvvEEPS3_EEE10_M_managerERSt9_Any_dataRKSB_St18_Manager_operation
_ZNSt14_Function_base13_Base_managerISt5_BindIFSt7_Mem_fnIM4UIMeFvPN7cocos2d11EventCustomEEEPS3_St12_PlaceholderILi1EEEEE10_M_managerERSt9_Any_dataRKSG_St18_Manager_operation
_ZNSt14_Function_base13_Base_managerISt5_BindIFSt7_Mem_fnIM5PianoFvvEEPS3_EEE10_M_managerERSt9_Any_dataRKSB_St18_Manager_operation
_ZNSt14_Function_base13_Base_managerISt5_BindIFSt7_Mem_fnIM6CLogicFvbSsEEPS3_St12_PlaceholderILi1EES8_ILi2EEEEE10_M_managerERSt9_Any_dataRKSE_St18_Manager_operation
_ZNSt14_Function_base13_Base_managerISt5_BindIFSt7_Mem_fnIM6UIBaseFvN7cocos2d13EventKeyboard7KeyCodeEPNS4_5EventEEEP9UIConfirmSt12_PlaceholderILi1EESE_ILi2EEEEE10_M_managerERSt9_Any_dataRKSK_St18_Manager_operation
_ZNSt14_Function_base13_Base_managerISt5_BindIFSt7_Mem_fnIM6UIHomeFbPN7cocos2d5TouchEPNS4_5EventEEEPS3_St12_PlaceholderILi1EESD_ILi2EEEEE10_M_managerERSt9_Any_dataRKSJ_St18_Manager_operation
_ZNSt14_Function_base13_Base_managerISt5_BindIFSt7_Mem_fnIM6UIHomeFvPN7cocos2d11EventCustomEEEPS3_St12_PlaceholderILi1EEEEE10_M_managerERSt9_Any_dataRKSG_St18_Manager_operation
_ZNSt14_Function_base13_Base_managerISt5_BindIFSt7_Mem_fnIM6UIHomeFvPN7cocos2d5TouchEPNS4_5EventEEEPS3_St12_PlaceholderILi1EESD_ILi2EEEEE10_M_managerERSt9_Any_dataRKSJ_St18_Manager_operation
_ZNSt14_Function_base13_Base_managerISt5_BindIFSt7_Mem_fnIM6UIInfoFbPN7cocos2d5TouchEPNS4_5EventEEEPS3_St12_PlaceholderILi1EESD_ILi2EEEEE10_M_managerERSt9_Any_dataRKSJ_St18_Manager_operation
_ZNSt14_Function_base13_Base_managerISt5_BindIFSt7_Mem_fnIM6UIInfoFvN7cocos2d13EventKeyboard7KeyCodeEPNS4_5EventEEEPS3_St12_PlaceholderILi1EESD_ILi2EEEEE10_M_managerERSt9_Any_dataRKSJ_St18_Manager_operation
_ZNSt14_Function_base13_Base_managerISt5_BindIFSt7_Mem_fnIM6UIInfoFvPN10cocostudio8timeline5FrameEEEPS3_St12_PlaceholderILi1EEEEE10_M_managerERSt9_Any_dataRKSH_St18_Manager_operation
_ZNSt14_Function_base13_Base_managerISt5_BindIFSt7_Mem_fnIM6UIInfoFvPN7cocos2d3RefEEEPS3_St12_PlaceholderILi1EEEEE10_M_managerERSt9_Any_dataRKSG_St18_Manager_operation
_ZNSt14_Function_base13_Base_managerISt5_BindIFSt7_Mem_fnIM6UIInfoFvPN7cocos2d5TouchEPNS4_5EventEEEPS3_St12_PlaceholderILi1EESD_ILi2EEEEE10_M_managerERSt9_Any_dataRKSJ_St18_Manager_operation
_ZNSt14_Function_base13_Base_managerISt5_BindIFSt7_Mem_fnIM6UIOpenFbPN7cocos2d5TouchEPNS4_5EventEEEPS3_St12_PlaceholderILi1EESD_ILi2EEEEE10_M_managerERSt9_Any_dataRKSJ_St18_Manager_operation
_ZNSt14_Function_base13_Base_managerISt5_BindIFSt7_Mem_fnIM6UIOpenFvPN7cocos2d5TouchEPNS4_5EventEEEPS3_St12_PlaceholderILi1EESD_ILi2EEEEE10_M_managerERSt9_Any_dataRKSJ_St18_Manager_operation
_ZNSt14_Function_base13_Base_managerISt5_BindIFSt7_Mem_fnIM6UITestFbPN7cocos2d5TouchEPNS4_5EventEEEPS3_St12_PlaceholderILi1EESD_ILi2EEEEE10_M_managerERSt9_Any_dataRKSJ_St18_Manager_operation
_ZNSt14_Function_base13_Base_managerISt5_BindIFSt7_Mem_fnIM6UITestFvPN7cocos2d3RefEEEPS3_St12_PlaceholderILi1EEEEE10_M_managerERSt9_Any_dataRKSG_St18_Manager_operation
_ZNSt14_Function_base13_Base_managerISt5_BindIFSt7_Mem_fnIM6UITestFvPN7cocos2d5TouchEPNS4_5EventEEEPS3_St12_PlaceholderILi1EESD_ILi2EEEEE10_M_managerERSt9_Any_dataRKSJ_St18_Manager_operation
_ZNSt14_Function_base13_Base_managerISt5_BindIFSt7_Mem_fnIM6UITipsFbPN7cocos2d5TouchEPNS4_5EventEEEPS3_St12_PlaceholderILi1EESD_ILi2EEEEE10_M_managerERSt9_Any_dataRKSJ_St18_Manager_operation
_ZNSt14_Function_base13_Base_managerISt5_BindIFSt7_Mem_fnIM6UITipsFvPN7cocos2d5TouchEPNS4_5EventEEEPS3_St12_PlaceholderILi1EESD_ILi2EEEEE10_M_managerERSt9_Any_dataRKSJ_St18_Manager_operation
_ZNSt14_Function_base13_Base_managerISt5_BindIFSt7_Mem_fnIM7UIPauseFbPN7cocos2d5TouchEPNS4_5EventEEEPS3_St12_PlaceholderILi1EESD_ILi2EEEEE10_M_managerERSt9_Any_dataRKSJ_St18_Manager_operation
_ZNSt14_Function_base13_Base_managerISt5_BindIFSt7_Mem_fnIM7UIPauseFvPN7cocos2d3RefENS4_2ui6Widget14TouchEventTypeEEEPS3_St12_PlaceholderILi1EESE_ILi2EEEEE10_M_managerERSt9_Any_dataRKSK_St18_Manager_operation
_ZNSt14_Function_base13_Base_managerISt5_BindIFSt7_Mem_fnIM7UIPauseFvPN7cocos2d5TouchEPNS4_5EventEEEPS3_St12_PlaceholderILi1EESD_ILi2EEEEE10_M_managerERSt9_Any_dataRKSJ_St18_Manager_operation
_ZNSt14_Function_base13_Base_managerISt5_BindIFSt7_Mem_fnIM8CGameResFvRKN7cocos2d9extension10Downloader5ErrorEEEPS3_St12_PlaceholderILi1EEEEE10_M_managerERSt9_Any_dataRKSJ_St18_Manager_operation
_ZNSt14_Function_base13_Base_managerISt5_BindIFSt7_Mem_fnIM8CGameResFvRKSsS5_S5_EEPS3_St12_PlaceholderILi1EESA_ILi2EESA_ILi3EEEEE10_M_managerERSt9_Any_dataRKSH_St18_Manager_operation
_ZNSt14_Function_base13_Base_managerISt5_BindIFSt7_Mem_fnIM8CGameResFvddRKSsS5_EEPS3_St12_PlaceholderILi1EESA_ILi2EESA_ILi3EESA_ILi4EEEEE10_M_managerERSt9_Any_dataRKSI_St18_Manager_operation
_ZNSt14_Function_base13_Base_managerISt5_BindIFSt7_Mem_fnIM8ItemGiftFvbEEPS3_St12_PlaceholderILi1EEEEE10_M_managerERSt9_Any_dataRKSD_St18_Manager_operation
_ZNSt14_Function_base13_Base_managerISt5_BindIFSt7_Mem_fnIM8TipsShowFbPN7cocos2d5TouchEPNS4_5EventEEEPS3_St12_PlaceholderILi1EESD_ILi2EEEEE10_M_managerERSt9_Any_dataRKSJ_St18_Manager_operation
_ZNSt14_Function_base13_Base_managerISt5_BindIFSt7_Mem_fnIM8TipsShowFvPN7cocos2d5TouchEPNS4_5EventEEEPS3_St12_PlaceholderILi1EESD_ILi2EEEEE10_M_managerERSt9_Any_dataRKSJ_St18_Manager_operation
_ZNSt14_Function_base13_Base_managerISt5_BindIFSt7_Mem_fnIM8UIGrayBGFbPN7cocos2d5TouchEPNS4_5EventEEEPS3_St12_PlaceholderILi1EESD_ILi2EEEEE10_M_managerERSt9_Any_dataRKSJ_St18_Manager_operation
_ZNSt14_Function_base13_Base_managerISt5_BindIFSt7_Mem_fnIM8UIGrayBGFvPN7cocos2d5TouchEPNS4_5EventEEEPS3_St12_PlaceholderILi1EESD_ILi2EEEEE10_M_managerERSt9_Any_dataRKSJ_St18_Manager_operation
_ZNSt14_Function_base13_Base_managerISt5_BindIFSt7_Mem_fnIM8UIInviteFbPN7cocos2d5TouchEPNS4_5EventEEEPS3_St12_PlaceholderILi1EESD_ILi2EEEEE10_M_managerERSt9_Any_dataRKSJ_St18_Manager_operation
_ZNSt14_Function_base13_Base_managerISt5_BindIFSt7_Mem_fnIM8UIInviteFvPN7cocos2d3RefEEEPS3_St12_PlaceholderILi1EEEEE10_M_managerERSt9_Any_dataRKSG_St18_Manager_operation
_ZNSt14_Function_base13_Base_managerISt5_BindIFSt7_Mem_fnIM8UIInviteFvPN7cocos2d3RefENS4_2ui6Widget14TouchEventTypeEEEPS3_St12_PlaceholderILi1EESE_ILi2EEEEE10_M_managerERSt9_Any_dataRKSK_St18_Manager_operation
_ZNSt14_Function_base13_Base_managerISt5_BindIFSt7_Mem_fnIM8UIInviteFvPN7cocos2d3RefENS4_2ui8CheckBox9EventTypeEEEPS3_St12_PlaceholderILi1EESE_ILi2EEEEE10_M_managerERSt9_Any_dataRKSK_St18_Manager_operation
_ZNSt14_Function_base13_Base_managerISt5_BindIFSt7_Mem_fnIM8UIInviteFvPN7cocos2d5TouchEPNS4_5EventEEEPS3_St12_PlaceholderILi1EESD_ILi2EEEEE10_M_managerERSt9_Any_dataRKSJ_St18_Manager_operation
_ZNSt14_Function_base13_Base_managerISt5_BindIFSt7_Mem_fnIM8UIReliveFbPN7cocos2d5TouchEPNS4_5EventEEEPS3_St12_PlaceholderILi1EESD_ILi2EEEEE10_M_managerERSt9_Any_dataRKSJ_St18_Manager_operation
_ZNSt14_Function_base13_Base_managerISt5_BindIFSt7_Mem_fnIM8UIReliveFvN9CAdPlugin12eVideoResultEiiEEPS3_St12_PlaceholderILi1EESA_ILi2EESA_ILi3EEEEE10_M_managerERSt9_Any_dataRKSH_St18_Manager_operation
_ZNSt14_Function_base13_Base_managerISt5_BindIFSt7_Mem_fnIM8UIReliveFvPN7cocos2d5TouchEPNS4_5EventEEEPS3_St12_PlaceholderILi1EESD_ILi2EEEEE10_M_managerERSt9_Any_dataRKSJ_St18_Manager_operation
_ZNSt14_Function_base13_Base_managerISt5_BindIFSt7_Mem_fnIM8UIResultFbPN7cocos2d5TouchEPNS4_5EventEEEPS3_St12_PlaceholderILi1EESD_ILi2EEEEE10_M_managerERSt9_Any_dataRKSJ_St18_Manager_operation
_ZNSt14_Function_base13_Base_managerISt5_BindIFSt7_Mem_fnIM8UIResultFvN9CAdPlugin12eVideoResultEiiEEPS3_St12_PlaceholderILi1EESA_ILi2EESA_ILi3EEEEE10_M_managerERSt9_Any_dataRKSH_St18_Manager_operation
_ZNSt14_Function_base13_Base_managerISt5_BindIFSt7_Mem_fnIM8UIResultFvP14DiamondDataRevEEPS3_St12_PlaceholderILi1EEEEE10_M_managerERSt9_Any_dataRKSF_St18_Manager_operation
_ZNSt14_Function_base13_Base_managerISt5_BindIFSt7_Mem_fnIM8UIResultFvP16CustomHttpClientP18CustomHttpResponseEEPS3_St12_PlaceholderILi1EESC_ILi2EEEEE10_M_managerERSt9_Any_dataRKSI_St18_Manager_operation
_ZNSt14_Function_base13_Base_managerISt5_BindIFSt7_Mem_fnIM8UIResultFvPN7cocos2d11EventCustomEEEPS3_St12_PlaceholderILi1EEEEE10_M_managerERSt9_Any_dataRKSG_St18_Manager_operation
_ZNSt14_Function_base13_Base_managerISt5_BindIFSt7_Mem_fnIM8UIResultFvPN7cocos2d3RefEEEPS3_St12_PlaceholderILi1EEEEE10_M_managerERSt9_Any_dataRKSG_St18_Manager_operation
_ZNSt14_Function_base13_Base_managerISt5_BindIFSt7_Mem_fnIM8UIResultFvPN7cocos2d4NodeEEEPS3_St12_PlaceholderILi1EEEEE10_M_managerERSt9_Any_dataRKSG_St18_Manager_operation
_ZNSt14_Function_base13_Base_managerISt5_BindIFSt7_Mem_fnIM8UIResultFvPN7cocos2d5TouchEPNS4_5EventEEEPS3_St12_PlaceholderILi1EESD_ILi2EEEEE10_M_managerERSt9_Any_dataRKSJ_St18_Manager_operation
_ZNSt14_Function_base13_Base_managerISt5_BindIFSt7_Mem_fnIM8UIThanksFbPN7cocos2d5TouchEPNS4_5EventEEEPS3_St12_PlaceholderILi1EESD_ILi2EEEEE10_M_managerERSt9_Any_dataRKSJ_St18_Manager_operation
_ZNSt14_Function_base13_Base_managerISt5_BindIFSt7_Mem_fnIM8UIThanksFvPN7cocos2d3RefEEEPS3_St12_PlaceholderILi1EEEEE10_M_managerERSt9_Any_dataRKSG_St18_Manager_operation
_ZNSt14_Function_base13_Base_managerISt5_BindIFSt7_Mem_fnIM8UIThanksFvPN7cocos2d5TouchEPNS4_5EventEEEPS3_St12_PlaceholderILi1EESD_ILi2EEEEE10_M_managerERSt9_Any_dataRKSJ_St18_Manager_operation
_ZNSt14_Function_base13_Base_managerISt5_BindIFSt7_Mem_fnIM8XmasTreeFvPN7cocos2d3RefEEEPS3_St12_PlaceholderILi1EEEEE10_M_managerERSt9_Any_dataRKSG_St18_Manager_operation
_ZNSt14_Function_base13_Base_managerISt5_BindIFSt7_Mem_fnIM9ItemAlbumFvN9CAdPlugin12eVideoResultEiiEEPS3_St12_PlaceholderILi1EESA_ILi2EESA_ILi3EEEEE10_M_managerERSt9_Any_dataRKSH_St18_Manager_operation
_ZNSt14_Function_base13_Base_managerISt5_BindIFSt7_Mem_fnIM9ItemAlbumFvPN7cocos2d3RefENS4_2ui6Widget14TouchEventTypeEEEPS3_St12_PlaceholderILi1EESE_ILi2EEEEE10_M_managerERSt9_Any_dataRKSK_St18_Manager_operation
_ZNSt14_Function_base13_Base_managerISt5_BindIFSt7_Mem_fnIM9ItemVideoFvN9CAdPlugin12eVideoResultEiiEEPS3_St12_PlaceholderILi1EESA_ILi2EESA_ILi3EEEEE10_M_managerERSt9_Any_dataRKSH_St18_Manager_operation
_ZNSt14_Function_base13_Base_managerISt5_BindIFSt7_Mem_fnIM9PuzzlePicFbPN7cocos2d5TouchEPNS4_5EventEEEPS3_St12_PlaceholderILi1EESD_ILi2EEEEE10_M_managerERSt9_Any_dataRKSJ_St18_Manager_operation
_ZNSt14_Function_base13_Base_managerISt5_BindIFSt7_Mem_fnIM9PuzzlePicFvPN7cocos2d11EventCustomEEEPS3_St12_PlaceholderILi1EEEEE10_M_managerERSt9_Any_dataRKSG_St18_Manager_operation
_ZNSt14_Function_base13_Base_managerISt5_BindIFSt7_Mem_fnIM9PuzzlePicFvPN7cocos2d5TouchEPNS4_5EventEEEPS3_St12_PlaceholderILi1EESD_ILi2EEEEE10_M_managerERSt9_Any_dataRKSJ_St18_Manager_operation
_ZNSt14_Function_base13_Base_managerISt5_BindIFSt7_Mem_fnIM9UIAlbumAWFvN9CAdPlugin12eVideoResultEiiEEPS3_St12_PlaceholderILi1EESA_ILi2EESA_ILi3EEEEE10_M_managerERSt9_Any_dataRKSH_St18_Manager_operation
_ZNSt14_Function_base13_Base_managerISt5_BindIFSt7_Mem_fnIM9UIConfirmFbPN7cocos2d5TouchEPNS4_5EventEEEPS3_St12_PlaceholderILi1EESD_ILi2EEEEE10_M_managerERSt9_Any_dataRKSJ_St18_Manager_operation
_ZNSt14_Function_base13_Base_managerISt5_BindIFSt7_Mem_fnIM9UIConfirmFvPN7cocos2d5TouchEPNS4_5EventEEEPS3_St12_PlaceholderILi1EESD_ILi2EEEEE10_M_managerERSt9_Any_dataRKSJ_St18_Manager_operation
_ZNSt14_Function_base13_Base_managerISt5_BindIFSt7_Mem_fnIM9UIItemBuyFvN9CAdPlugin12eVideoResultEiiEEPS3_St12_PlaceholderILi1EESA_ILi2EESA_ILi3EEEEE10_M_managerERSt9_Any_dataRKSH_St18_Manager_operation
_ZNSt14_Function_base13_Base_managerISt5_BindIFSt7_Mem_fnIM9UILevelUpFbPN7cocos2d5TouchEPNS4_5EventEEEPS3_St12_PlaceholderILi1EESD_ILi2EEEEE10_M_managerERSt9_Any_dataRKSJ_St18_Manager_operation
_ZNSt14_Function_base13_Base_managerISt5_BindIFSt7_Mem_fnIM9UILevelUpFvN9CAdPlugin12eVideoResultEiiEEPS3_St12_PlaceholderILi1EESA_ILi2EESA_ILi3EEEEE10_M_managerERSt9_Any_dataRKSH_St18_Manager_operation
_ZNSt14_Function_base13_Base_managerISt5_BindIFSt7_Mem_fnIM9UILevelUpFvPN7cocos2d5TouchEPNS4_5EventEEEPS3_St12_PlaceholderILi1EESD_ILi2EEEEE10_M_managerERSt9_Any_dataRKSJ_St18_Manager_operation
_ZNSt14_Function_base13_Base_managerISt5_BindIFSt7_Mem_fnIM9UILockingFbPN7cocos2d5TouchEPNS4_5EventEEEPS3_St12_PlaceholderILi1EESD_ILi2EEEEE10_M_managerERSt9_Any_dataRKSJ_St18_Manager_operation
_ZNSt14_Function_base13_Base_managerISt5_BindIFSt7_Mem_fnIM9UILoveActFbPN7cocos2d5TouchEPNS4_5EventEEEPS3_St12_PlaceholderILi1EESD_ILi2EEEEE10_M_managerERSt9_Any_dataRKSJ_St18_Manager_operation
_ZNSt14_Function_base13_Base_managerISt5_BindIFSt7_Mem_fnIM9UILoveActFvPN7cocos2d3RefEEEPS3_St12_PlaceholderILi1EEEEE10_M_managerERSt9_Any_dataRKSG_St18_Manager_operation
_ZNSt14_Function_base13_Base_managerISt5_BindIFSt7_Mem_fnIM9UILoveActFvPN7cocos2d5TouchEPNS4_5EventEEEPS3_St12_PlaceholderILi1EESD_ILi2EEEEE10_M_managerERSt9_Any_dataRKSJ_St18_Manager_operation
_ZNSt14_Function_base13_Base_managerISt5_BindIFSt7_Mem_fnIM9UIReceiveFbPN7cocos2d5TouchEPNS4_5EventEEEPS3_St12_PlaceholderILi1EESD_ILi2EEEEE10_M_managerERSt9_Any_dataRKSJ_St18_Manager_operation
_ZNSt14_Function_base13_Base_managerISt5_BindIFSt7_Mem_fnIM9UIReceiveFvN7cocos2d13EventKeyboard7KeyCodeEPNS4_5EventEEEPS3_St12_PlaceholderILi1EESD_ILi2EEEEE10_M_managerERSt9_Any_dataRKSJ_St18_Manager_operation
_ZNSt14_Function_base13_Base_managerISt5_BindIFSt7_Mem_fnIM9UIReceiveFvPN7cocos2d3RefEEEPS3_St12_PlaceholderILi1EEEEE10_M_managerERSt9_Any_dataRKSG_St18_Manager_operation
_ZNSt14_Function_base13_Base_managerISt5_BindIFSt7_Mem_fnIM9UIReceiveFvPN7cocos2d3RefENS4_2ui6Widget14TouchEventTypeEEEPS3_St12_PlaceholderILi1EESE_ILi2EEEEE10_M_managerERSt9_Any_dataRKSK_St18_Manager_operation
_ZNSt14_Function_base13_Base_managerISt5_BindIFSt7_Mem_fnIM9UIReceiveFvPN7cocos2d5TouchEPNS4_5EventEEEPS3_St12_PlaceholderILi1EESD_ILi2EEEEE10_M_managerERSt9_Any_dataRKSJ_St18_Manager_operation
_ZNSt14_Function_base13_Base_managerISt5_BindIFSt7_Mem_fnIM9UIStartupFbPN7cocos2d5TouchEPNS4_5EventEEEPS3_St12_PlaceholderILi1EESD_ILi2EEEEE10_M_managerERSt9_Any_dataRKSJ_St18_Manager_operation
_ZNSt14_Function_base13_Base_managerISt5_BindIFSt7_Mem_fnIM9UIStartupFvPN7cocos2d3RefENS4_2ui6Widget14TouchEventTypeEEEPS3_St12_PlaceholderILi1EESE_ILi2EEEEE10_M_managerERSt9_Any_dataRKSK_St18_Manager_operation
_ZNSt14_Function_base13_Base_managerISt5_BindIFSt7_Mem_fnIM9UIStartupFvPN7cocos2d5TouchEPNS4_5EventEEEPS3_St12_PlaceholderILi1EESD_ILi2EEEEE10_M_managerERSt9_Any_dataRKSJ_St18_Manager_operation
_ZNSt14_Function_base13_Base_managerISt5_BindIFSt7_Mem_fnIM9UIXmasActFbPN7cocos2d5TouchEPNS4_5EventEEEPS3_St12_PlaceholderILi1EESD_ILi2EEEEE10_M_managerERSt9_Any_dataRKSJ_St18_Manager_operation
_ZNSt14_Function_base13_Base_managerISt5_BindIFSt7_Mem_fnIM9UIXmasActFvPN7cocos2d11EventCustomEEEPS3_St12_PlaceholderILi1EEEEE10_M_managerERSt9_Any_dataRKSG_St18_Manager_operation
_ZNSt14_Function_base13_Base_managerISt5_BindIFSt7_Mem_fnIM9UIXmasActFvPN7cocos2d3RefEEEPS3_St12_PlaceholderILi1EEEEE10_M_managerERSt9_Any_dataRKSG_St18_Manager_operation
_ZNSt14_Function_base13_Base_managerISt5_BindIFSt7_Mem_fnIM9UIXmasActFvPN7cocos2d5TouchEPNS4_5EventEEEPS3_St12_PlaceholderILi1EESD_ILi2EEEEE10_M_managerERSt9_Any_dataRKSJ_St18_Manager_operation
_ZNSt14_Function_base13_Base_managerISt5_BindIFSt7_Mem_fnIMN22UIDialogShareRedPacket16WechatShareLayerEFbPN7cocos2d5TouchEPNS5_5EventEEEPS4_St12_PlaceholderILi1EESE_ILi2EEEEE10_M_managerERSt9_Any_dataRKSK_St18_Manager_operation
_ZNSt14_Function_base13_Base_managerISt5_BindIFSt7_Mem_fnIMN7cocos2d11MeshCommandEFvPNS3_11EventCustomEEEPS4_St12_PlaceholderILi1EEEEE10_M_destroyERSt9_Any_dataSt17integral_constantIbLb0EE
_ZNSt14_Function_base13_Base_managerISt5_BindIFSt7_Mem_fnIMN7cocos2d11MeshCommandEFvPNS3_11EventCustomEEEPS4_St12_PlaceholderILi1EEEEE10_M_managerERSt9_Any_dataRKSG_St18_Manager_operation
_ZNSt14_Function_base13_Base_managerISt5_BindIFSt7_Mem_fnIMN7cocos2d11MeshCommandEFvPNS3_11EventCustomEEEPS4_St12_PlaceholderILi1EEEEE14_M_get_pointerERKSt9_Any_data
_ZNSt14_Function_base13_Base_managerISt5_BindIFSt7_Mem_fnIMN7cocos2d11MeshCommandEFvPNS3_11EventCustomEEEPS4_St12_PlaceholderILi1EEEEE15_M_init_functorERSt9_Any_dataOSE_
_ZNSt14_Function_base13_Base_managerISt5_BindIFSt7_Mem_fnIMN7cocos2d11MeshCommandEFvPNS3_11EventCustomEEEPS4_St12_PlaceholderILi1EEEEE15_M_init_functorERSt9_Any_dataOSE_St17integral_constantIbLb0EE
_ZNSt14_Function_base13_Base_managerISt5_BindIFSt7_Mem_fnIMN7cocos2d11MeshCommandEFvPNS3_11EventCustomEEEPS4_St12_PlaceholderILi1EEEEE21_M_not_empty_functionISE_EEbRKT_
_ZNSt14_Function_base13_Base_managerISt5_BindIFSt7_Mem_fnIMN7cocos2d11MeshCommandEFvPNS3_11EventCustomEEEPS4_St12_PlaceholderILi1EEEEE8_M_cloneERSt9_Any_dataRKSG_St17integral_constantIbLb0EE
_ZNSt14_Function_base13_Base_managerISt5_BindIFSt7_Mem_fnIMN7cocos2d11MeshCommandEFvPNS3_9GLProgramEPNS3_7UniformEEEPS4_St12_PlaceholderILi1EESD_ILi2EEEEE10_M_destroyERSt9_Any_dataSt17integral_constantIbLb0EE
_ZNSt14_Function_base13_Base_managerISt5_BindIFSt7_Mem_fnIMN7cocos2d11MeshCommandEFvPNS3_9GLProgramEPNS3_7UniformEEEPS4_St12_PlaceholderILi1EESD_ILi2EEEEE10_M_managerERSt9_Any_dataRKSJ_St18_Manager_operation
_ZNSt14_Function_base13_Base_managerISt5_BindIFSt7_Mem_fnIMN7cocos2d11MeshCommandEFvPNS3_9GLProgramEPNS3_7UniformEEEPS4_St12_PlaceholderILi1EESD_ILi2EEEEE14_M_get_pointerERKSt9_Any_data
_ZNSt14_Function_base13_Base_managerISt5_BindIFSt7_Mem_fnIMN7cocos2d11MeshCommandEFvPNS3_9GLProgramEPNS3_7UniformEEEPS4_St12_PlaceholderILi1EESD_ILi2EEEEE15_M_init_functorERSt9_Any_dataOSH_
_ZNSt14_Function_base13_Base_managerISt5_BindIFSt7_Mem_fnIMN7cocos2d11MeshCommandEFvPNS3_9GLProgramEPNS3_7UniformEEEPS4_St12_PlaceholderILi1EESD_ILi2EEEEE15_M_init_functorERSt9_Any_dataOSH_St17integral_constantIbLb0EE
_ZNSt14_Function_base13_Base_managerISt5_BindIFSt7_Mem_fnIMN7cocos2d11MeshCommandEFvPNS3_9GLProgramEPNS3_7UniformEEEPS4_St12_PlaceholderILi1EESD_ILi2EEEEE21_M_not_empty_functionISH_EEbRKT_
_ZNSt14_Function_base13_Base_managerISt5_BindIFSt7_Mem_fnIMN7cocos2d11MeshCommandEFvPNS3_9GLProgramEPNS3_7UniformEEEPS4_St12_PlaceholderILi1EESD_ILi2EEEEE8_M_cloneERSt9_Any_dataRKSJ_St17integral_constantIbLb0EE
_ZNSt14_Function_base13_Base_managerISt5_BindIFSt7_Mem_fnIMN7cocos2d12TextureAtlasEFvPNS3_11EventCustomEEEPS4_St12_PlaceholderILi1EEEEE10_M_destroyERSt9_Any_dataSt17integral_constantIbLb0EE
_ZNSt14_Function_base13_Base_managerISt5_BindIFSt7_Mem_fnIMN7cocos2d12TextureAtlasEFvPNS3_11EventCustomEEEPS4_St12_PlaceholderILi1EEEEE10_M_managerERSt9_Any_dataRKSG_St18_Manager_operation
_ZNSt14_Function_base13_Base_managerISt5_BindIFSt7_Mem_fnIMN7cocos2d12TextureAtlasEFvPNS3_11EventCustomEEEPS4_St12_PlaceholderILi1EEEEE14_M_get_pointerERKSt9_Any_data
_ZNSt14_Function_base13_Base_managerISt5_BindIFSt7_Mem_fnIMN7cocos2d12TextureAtlasEFvPNS3_11EventCustomEEEPS4_St12_PlaceholderILi1EEEEE15_M_init_functorERSt9_Any_dataOSE_
_ZNSt14_Function_base13_Base_managerISt5_BindIFSt7_Mem_fnIMN7cocos2d12TextureAtlasEFvPNS3_11EventCustomEEEPS4_St12_PlaceholderILi1EEEEE15_M_init_functorERSt9_Any_dataOSE_St17integral_constantIbLb0EE
_ZNSt14_Function_base13_Base_managerISt5_BindIFSt7_Mem_fnIMN7cocos2d12TextureAtlasEFvPNS3_11EventCustomEEEPS4_St12_PlaceholderILi1EEEEE21_M_not_empty_functionISE_EEbRKT_
_ZNSt14_Function_base13_Base_managerISt5_BindIFSt7_Mem_fnIMN7cocos2d12TextureAtlasEFvPNS3_11EventCustomEEEPS4_St12_PlaceholderILi1EEEEE8_M_cloneERSt9_Any_dataRKSG_St17integral_constantIbLb0EE
_ZNSt14_Function_base13_Base_managerISt5_BindIFSt7_Mem_fnIMN7cocos2d13RenderTextureEFvPNS3_11EventCustomEEEPS4_St12_PlaceholderILi1EEEEE10_M_destroyERSt9_Any_dataSt17integral_constantIbLb0EE
_ZNSt14_Function_base13_Base_managerISt5_BindIFSt7_Mem_fnIMN7cocos2d13RenderTextureEFvPNS3_11EventCustomEEEPS4_St12_PlaceholderILi1EEEEE10_M_managerERSt9_Any_dataRKSG_St18_Manager_operation
_ZNSt14_Function_base13_Base_managerISt5_BindIFSt7_Mem_fnIMN7cocos2d13RenderTextureEFvPNS3_11EventCustomEEEPS4_St12_PlaceholderILi1EEEEE14_M_get_pointerERKSt9_Any_data
_ZNSt14_Function_base13_Base_managerISt5_BindIFSt7_Mem_fnIMN7cocos2d13RenderTextureEFvPNS3_11EventCustomEEEPS4_St12_PlaceholderILi1EEEEE15_M_init_functorERSt9_Any_dataOSE_
_ZNSt14_Function_base13_Base_managerISt5_BindIFSt7_Mem_fnIMN7cocos2d13RenderTextureEFvPNS3_11EventCustomEEEPS4_St12_PlaceholderILi1EEEEE15_M_init_functorERSt9_Any_dataOSE_St17integral_constantIbLb0EE
_ZNSt14_Function_base13_Base_managerISt5_BindIFSt7_Mem_fnIMN7cocos2d13RenderTextureEFvPNS3_11EventCustomEEEPS4_St12_PlaceholderILi1EEEEE21_M_not_empty_functionISE_EEbRKT_
_ZNSt14_Function_base13_Base_managerISt5_BindIFSt7_Mem_fnIMN7cocos2d13RenderTextureEFvPNS3_11EventCustomEEEPS4_St12_PlaceholderILi1EEEEE8_M_cloneERSt9_Any_dataRKSG_St17integral_constantIbLb0EE
_ZNSt14_Function_base13_Base_managerISt5_BindIFSt7_Mem_fnIMN7cocos2d15EventDispatcherEFviRKSsEEPS4_St12_PlaceholderILi1EESB_ILi2EEEEE10_M_destroyERSt9_Any_dataSt17integral_constantIbLb0EE
_ZNSt14_Function_base13_Base_managerISt5_BindIFSt7_Mem_fnIMN7cocos2d15EventDispatcherEFviRKSsEEPS4_St12_PlaceholderILi1EESB_ILi2EEEEE10_M_managerERSt9_Any_dataRKSH_St18_Manager_operation
_ZNSt14_Function_base13_Base_managerISt5_BindIFSt7_Mem_fnIMN7cocos2d15EventDispatcherEFviRKSsEEPS4_St12_PlaceholderILi1EESB_ILi2EEEEE14_M_get_pointerERKSt9_Any_data
_ZNSt14_Function_base13_Base_managerISt5_BindIFSt7_Mem_fnIMN7cocos2d15EventDispatcherEFviRKSsEEPS4_St12_PlaceholderILi1EESB_ILi2EEEEE15_M_init_functorERSt9_Any_dataOSF_
_ZNSt14_Function_base13_Base_managerISt5_BindIFSt7_Mem_fnIMN7cocos2d15EventDispatcherEFviRKSsEEPS4_St12_PlaceholderILi1EESB_ILi2EEEEE15_M_init_functorERSt9_Any_dataOSF_St17integral_constantIbLb0EE
_ZNSt14_Function_base13_Base_managerISt5_BindIFSt7_Mem_fnIMN7cocos2d15EventDispatcherEFviRKSsEEPS4_St12_PlaceholderILi1EESB_ILi2EEEEE21_M_not_empty_functionISF_EEbRKT_
_ZNSt14_Function_base13_Base_managerISt5_BindIFSt7_Mem_fnIMN7cocos2d15EventDispatcherEFviRKSsEEPS4_St12_PlaceholderILi1EESB_ILi2EEEEE8_M_cloneERSt9_Any_dataRKSH_St17integral_constantIbLb0EE
_ZNSt14_Function_base13_Base_managerISt5_BindIFSt7_Mem_fnIMN7cocos2d15TransitionSceneEFvvEEPNS3_15TransitionFlipXEEEE10_M_destroyERSt9_Any_dataSt17integral_constantIbLb0EE
_ZNSt14_Function_base13_Base_managerISt5_BindIFSt7_Mem_fnIMN7cocos2d15TransitionSceneEFvvEEPNS3_15TransitionFlipXEEEE10_M_managerERSt9_Any_dataRKSD_St18_Manager_operation
_ZNSt14_Function_base13_Base_managerISt5_BindIFSt7_Mem_fnIMN7cocos2d15TransitionSceneEFvvEEPNS3_15TransitionFlipXEEEE14_M_get_pointerERKSt9_Any_data
_ZNSt14_Function_base13_Base_managerISt5_BindIFSt7_Mem_fnIMN7cocos2d15TransitionSceneEFvvEEPNS3_15TransitionFlipXEEEE15_M_init_functorERSt9_Any_dataOSB_
_ZNSt14_Function_base13_Base_managerISt5_BindIFSt7_Mem_fnIMN7cocos2d15TransitionSceneEFvvEEPNS3_15TransitionFlipXEEEE15_M_init_functorERSt9_Any_dataOSB_St17integral_constantIbLb0EE
_ZNSt14_Function_base13_Base_managerISt5_BindIFSt7_Mem_fnIMN7cocos2d15TransitionSceneEFvvEEPNS3_15TransitionFlipXEEEE21_M_not_empty_functionISB_EEbRKT_
_ZNSt14_Function_base13_Base_managerISt5_BindIFSt7_Mem_fnIMN7cocos2d15TransitionSceneEFvvEEPNS3_15TransitionFlipXEEEE8_M_cloneERSt9_Any_dataRKSD_St17integral_constantIbLb0EE
_ZNSt14_Function_base13_Base_managerISt5_BindIFSt7_Mem_fnIMN7cocos2d15TransitionSceneEFvvEEPNS3_15TransitionFlipYEEEE10_M_destroyERSt9_Any_dataSt17integral_constantIbLb0EE
_ZNSt14_Function_base13_Base_managerISt5_BindIFSt7_Mem_fnIMN7cocos2d15TransitionSceneEFvvEEPNS3_15TransitionFlipYEEEE10_M_managerERSt9_Any_dataRKSD_St18_Manager_operation
_ZNSt14_Function_base13_Base_managerISt5_BindIFSt7_Mem_fnIMN7cocos2d15TransitionSceneEFvvEEPNS3_15TransitionFlipYEEEE14_M_get_pointerERKSt9_Any_data
_ZNSt14_Function_base13_Base_managerISt5_BindIFSt7_Mem_fnIMN7cocos2d15TransitionSceneEFvvEEPNS3_15TransitionFlipYEEEE15_M_init_functorERSt9_Any_dataOSB_
_ZNSt14_Function_base13_Base_managerISt5_BindIFSt7_Mem_fnIMN7cocos2d15TransitionSceneEFvvEEPNS3_15TransitionFlipYEEEE15_M_init_functorERSt9_Any_dataOSB_St17integral_constantIbLb0EE
_ZNSt14_Function_base13_Base_managerISt5_BindIFSt7_Mem_fnIMN7cocos2d15TransitionSceneEFvvEEPNS3_15TransitionFlipYEEEE21_M_not_empty_functionISB_EEbRKT_
_ZNSt14_Function_base13_Base_managerISt5_BindIFSt7_Mem_fnIMN7cocos2d15TransitionSceneEFvvEEPNS3_15TransitionFlipYEEEE8_M_cloneERSt9_Any_dataRKSD_St17integral_constantIbLb0EE
_ZNSt14_Function_base13_Base_managerISt5_BindIFSt7_Mem_fnIMN7cocos2d15TransitionSceneEFvvEEPNS3_19TransitionZoomFlipXEEEE10_M_destroyERSt9_Any_dataSt17integral_constantIbLb0EE
_ZNSt14_Function_base13_Base_managerISt5_BindIFSt7_Mem_fnIMN7cocos2d15TransitionSceneEFvvEEPNS3_19TransitionZoomFlipXEEEE10_M_managerERSt9_Any_dataRKSD_St18_Manager_operation
_ZNSt14_Function_base13_Base_managerISt5_BindIFSt7_Mem_fnIMN7cocos2d15TransitionSceneEFvvEEPNS3_19TransitionZoomFlipXEEEE14_M_get_pointerERKSt9_Any_data
_ZNSt14_Function_base13_Base_managerISt5_BindIFSt7_Mem_fnIMN7cocos2d15TransitionSceneEFvvEEPNS3_19TransitionZoomFlipXEEEE15_M_init_functorERSt9_Any_dataOSB_
_ZNSt14_Function_base13_Base_managerISt5_BindIFSt7_Mem_fnIMN7cocos2d15TransitionSceneEFvvEEPNS3_19TransitionZoomFlipXEEEE15_M_init_functorERSt9_Any_dataOSB_St17integral_constantIbLb0EE
_ZNSt14_Function_base13_Base_managerISt5_BindIFSt7_Mem_fnIMN7cocos2d15TransitionSceneEFvvEEPNS3_19TransitionZoomFlipXEEEE21_M_not_empty_functionISB_EEbRKT_
_ZNSt14_Function_base13_Base_managerISt5_BindIFSt7_Mem_fnIMN7cocos2d15TransitionSceneEFvvEEPNS3_19TransitionZoomFlipXEEEE8_M_cloneERSt9_Any_dataRKSD_St17integral_constantIbLb0EE
_ZNSt14_Function_base13_Base_managerISt5_BindIFSt7_Mem_fnIMN7cocos2d15TransitionSceneEFvvEEPNS3_19TransitionZoomFlipYEEEE10_M_destroyERSt9_Any_dataSt17integral_constantIbLb0EE
_ZNSt14_Function_base13_Base_managerISt5_BindIFSt7_Mem_fnIMN7cocos2d15TransitionSceneEFvvEEPNS3_19TransitionZoomFlipYEEEE10_M_managerERSt9_Any_dataRKSD_St18_Manager_operation
_ZNSt14_Function_base13_Base_managerISt5_BindIFSt7_Mem_fnIMN7cocos2d15TransitionSceneEFvvEEPNS3_19TransitionZoomFlipYEEEE14_M_get_pointerERKSt9_Any_data
_ZNSt14_Function_base13_Base_managerISt5_BindIFSt7_Mem_fnIMN7cocos2d15TransitionSceneEFvvEEPNS3_19TransitionZoomFlipYEEEE15_M_init_functorERSt9_Any_dataOSB_
_ZNSt14_Function_base13_Base_managerISt5_BindIFSt7_Mem_fnIMN7cocos2d15TransitionSceneEFvvEEPNS3_19TransitionZoomFlipYEEEE15_M_init_functorERSt9_Any_dataOSB_St17integral_constantIbLb0EE
_ZNSt14_Function_base13_Base_managerISt5_BindIFSt7_Mem_fnIMN7cocos2d15TransitionSceneEFvvEEPNS3_19TransitionZoomFlipYEEEE21_M_not_empty_functionISB_EEbRKT_
_ZNSt14_Function_base13_Base_managerISt5_BindIFSt7_Mem_fnIMN7cocos2d15TransitionSceneEFvvEEPNS3_19TransitionZoomFlipYEEEE8_M_cloneERSt9_Any_dataRKSD_St17integral_constantIbLb0EE
_ZNSt14_Function_base13_Base_managerISt5_BindIFSt7_Mem_fnIMN7cocos2d15TransitionSceneEFvvEEPNS3_20TransitionShrinkGrowEEEE10_M_destroyERSt9_Any_dataSt17integral_constantIbLb0EE
_ZNSt14_Function_base13_Base_managerISt5_BindIFSt7_Mem_fnIMN7cocos2d15TransitionSceneEFvvEEPNS3_20TransitionShrinkGrowEEEE10_M_managerERSt9_Any_dataRKSD_St18_Manager_operation
_ZNSt14_Function_base13_Base_managerISt5_BindIFSt7_Mem_fnIMN7cocos2d15TransitionSceneEFvvEEPNS3_20TransitionShrinkGrowEEEE14_M_get_pointerERKSt9_Any_data
_ZNSt14_Function_base13_Base_managerISt5_BindIFSt7_Mem_fnIMN7cocos2d15TransitionSceneEFvvEEPNS3_20TransitionShrinkGrowEEEE15_M_init_functorERSt9_Any_dataOSB_
_ZNSt14_Function_base13_Base_managerISt5_BindIFSt7_Mem_fnIMN7cocos2d15TransitionSceneEFvvEEPNS3_20TransitionShrinkGrowEEEE15_M_init_functorERSt9_Any_dataOSB_St17integral_constantIbLb0EE
_ZNSt14_Function_base13_Base_managerISt5_BindIFSt7_Mem_fnIMN7cocos2d15TransitionSceneEFvvEEPNS3_20TransitionShrinkGrowEEEE21_M_not_empty_functionISB_EEbRKT_
_ZNSt14_Function_base13_Base_managerISt5_BindIFSt7_Mem_fnIMN7cocos2d15TransitionSceneEFvvEEPNS3_20TransitionShrinkGrowEEEE8_M_cloneERSt9_Any_dataRKSD_St17integral_constantIbLb0EE
_ZNSt14_Function_base13_Base_managerISt5_BindIFSt7_Mem_fnIMN7cocos2d15TransitionSceneEFvvEEPNS3_21TransitionFlipAngularEEEE10_M_destroyERSt9_Any_dataSt17integral_constantIbLb0EE
_ZNSt14_Function_base13_Base_managerISt5_BindIFSt7_Mem_fnIMN7cocos2d15TransitionSceneEFvvEEPNS3_21TransitionFlipAngularEEEE10_M_managerERSt9_Any_dataRKSD_St18_Manager_operation
_ZNSt14_Function_base13_Base_managerISt5_BindIFSt7_Mem_fnIMN7cocos2d15TransitionSceneEFvvEEPNS3_21TransitionFlipAngularEEEE14_M_get_pointerERKSt9_Any_data
_ZNSt14_Function_base13_Base_managerISt5_BindIFSt7_Mem_fnIMN7cocos2d15TransitionSceneEFvvEEPNS3_21TransitionFlipAngularEEEE15_M_init_functorERSt9_Any_dataOSB_
_ZNSt14_Function_base13_Base_managerISt5_BindIFSt7_Mem_fnIMN7cocos2d15TransitionSceneEFvvEEPNS3_21TransitionFlipAngularEEEE15_M_init_functorERSt9_Any_dataOSB_St17integral_constantIbLb0EE
_ZNSt14_Function_base13_Base_managerISt5_BindIFSt7_Mem_fnIMN7cocos2d15TransitionSceneEFvvEEPNS3_21TransitionFlipAngularEEEE21_M_not_empty_functionISB_EEbRKT_
_ZNSt14_Function_base13_Base_managerISt5_BindIFSt7_Mem_fnIMN7cocos2d15TransitionSceneEFvvEEPNS3_21TransitionFlipAngularEEEE8_M_cloneERSt9_Any_dataRKSD_St17integral_constantIbLb0EE
_ZNSt14_Function_base13_Base_managerISt5_BindIFSt7_Mem_fnIMN7cocos2d15TransitionSceneEFvvEEPNS3_22TransitionTurnOffTilesEEEE10_M_destroyERSt9_Any_dataSt17integral_constantIbLb0EE
_ZNSt14_Function_base13_Base_managerISt5_BindIFSt7_Mem_fnIMN7cocos2d15TransitionSceneEFvvEEPNS3_22TransitionTurnOffTilesEEEE10_M_managerERSt9_Any_dataRKSD_St18_Manager_operation
_ZNSt14_Function_base13_Base_managerISt5_BindIFSt7_Mem_fnIMN7cocos2d15TransitionSceneEFvvEEPNS3_22TransitionTurnOffTilesEEEE14_M_get_pointerERKSt9_Any_data
_ZNSt14_Function_base13_Base_managerISt5_BindIFSt7_Mem_fnIMN7cocos2d15TransitionSceneEFvvEEPNS3_22TransitionTurnOffTilesEEEE15_M_init_functorERSt9_Any_dataOSB_
_ZNSt14_Function_base13_Base_managerISt5_BindIFSt7_Mem_fnIMN7cocos2d15TransitionSceneEFvvEEPNS3_22TransitionTurnOffTilesEEEE15_M_init_functorERSt9_Any_dataOSB_St17integral_constantIbLb0EE
_ZNSt14_Function_base13_Base_managerISt5_BindIFSt7_Mem_fnIMN7cocos2d15TransitionSceneEFvvEEPNS3_22TransitionTurnOffTilesEEEE21_M_not_empty_functionISB_EEbRKT_
_ZNSt14_Function_base13_Base_managerISt5_BindIFSt7_Mem_fnIMN7cocos2d15TransitionSceneEFvvEEPNS3_22TransitionTurnOffTilesEEEE8_M_cloneERSt9_Any_dataRKSD_St17integral_constantIbLb0EE
_ZNSt14_Function_base13_Base_managerISt5_BindIFSt7_Mem_fnIMN7cocos2d15TransitionSceneEFvvEEPNS3_25TransitionZoomFlipAngularEEEE10_M_destroyERSt9_Any_dataSt17integral_constantIbLb0EE
_ZNSt14_Function_base13_Base_managerISt5_BindIFSt7_Mem_fnIMN7cocos2d15TransitionSceneEFvvEEPNS3_25TransitionZoomFlipAngularEEEE10_M_managerERSt9_Any_dataRKSD_St18_Manager_operation
_ZNSt14_Function_base13_Base_managerISt5_BindIFSt7_Mem_fnIMN7cocos2d15TransitionSceneEFvvEEPNS3_25TransitionZoomFlipAngularEEEE14_M_get_pointerERKSt9_Any_data
_ZNSt14_Function_base13_Base_managerISt5_BindIFSt7_Mem_fnIMN7cocos2d15TransitionSceneEFvvEEPNS3_25TransitionZoomFlipAngularEEEE15_M_init_functorERSt9_Any_dataOSB_
_ZNSt14_Function_base13_Base_managerISt5_BindIFSt7_Mem_fnIMN7cocos2d15TransitionSceneEFvvEEPNS3_25TransitionZoomFlipAngularEEEE15_M_init_functorERSt9_Any_dataOSB_St17integral_constantIbLb0EE
_ZNSt14_Function_base13_Base_managerISt5_BindIFSt7_Mem_fnIMN7cocos2d15TransitionSceneEFvvEEPNS3_25TransitionZoomFlipAngularEEEE21_M_not_empty_functionISB_EEbRKT_
_ZNSt14_Function_base13_Base_managerISt5_BindIFSt7_Mem_fnIMN7cocos2d15TransitionSceneEFvvEEPNS3_25TransitionZoomFlipAngularEEEE8_M_cloneERSt9_Any_dataRKSD_St17integral_constantIbLb0EE
_ZNSt14_Function_base13_Base_managerISt5_BindIFSt7_Mem_fnIMN7cocos2d18ParticleSystemQuadEFvPNS3_11EventCustomEEEPS4_St12_PlaceholderILi1EEEEE10_M_destroyERSt9_Any_dataSt17integral_constantIbLb0EE
_ZNSt14_Function_base13_Base_managerISt5_BindIFSt7_Mem_fnIMN7cocos2d18ParticleSystemQuadEFvPNS3_11EventCustomEEEPS4_St12_PlaceholderILi1EEEEE10_M_managerERSt9_Any_dataRKSG_St18_Manager_operation
_ZNSt14_Function_base13_Base_managerISt5_BindIFSt7_Mem_fnIMN7cocos2d18ParticleSystemQuadEFvPNS3_11EventCustomEEEPS4_St12_PlaceholderILi1EEEEE14_M_get_pointerERKSt9_Any_data
_ZNSt14_Function_base13_Base_managerISt5_BindIFSt7_Mem_fnIMN7cocos2d18ParticleSystemQuadEFvPNS3_11EventCustomEEEPS4_St12_PlaceholderILi1EEEEE15_M_init_functorERSt9_Any_dataOSE_
_ZNSt14_Function_base13_Base_managerISt5_BindIFSt7_Mem_fnIMN7cocos2d18ParticleSystemQuadEFvPNS3_11EventCustomEEEPS4_St12_PlaceholderILi1EEEEE15_M_init_functorERSt9_Any_dataOSE_St17integral_constantIbLb0EE
_ZNSt14_Function_base13_Base_managerISt5_BindIFSt7_Mem_fnIMN7cocos2d18ParticleSystemQuadEFvPNS3_11EventCustomEEEPS4_St12_PlaceholderILi1EEEEE21_M_not_empty_functionISE_EEbRKT_
_ZNSt14_Function_base13_Base_managerISt5_BindIFSt7_Mem_fnIMN7cocos2d18ParticleSystemQuadEFvPNS3_11EventCustomEEEPS4_St12_PlaceholderILi1EEEEE8_M_cloneERSt9_Any_dataRKSG_St17integral_constantIbLb0EE
_ZNSt14_Function_base13_Base_managerISt5_BindIFSt7_Mem_fnIMN7cocos2d2ui4TextEFvRKSsEEPS5_St12_PlaceholderILi1EEEEE10_M_managerERSt9_Any_dataRKSH_St18_Manager_operation
_ZNSt14_Function_base13_Base_managerISt5_BindIFSt7_Mem_fnIMN7cocos2d2ui4TextEFviEEPS5_St12_PlaceholderILi1EEEEE10_M_managerERSt9_Any_dataRKSF_St18_Manager_operation
_ZNSt14_Function_base13_Base_managerISt5_BindIFSt7_Mem_fnIMN7cocos2d2ui6ButtonEFvRKSsEEPS5_St12_PlaceholderILi1EEEEE10_M_managerERSt9_Any_dataRKSH_St18_Manager_operation
_ZNSt14_Function_base13_Base_managerISt5_BindIFSt7_Mem_fnIMN7cocos2d2ui6ButtonEFvfEEPS5_St12_PlaceholderILi1EEEEE10_M_managerERSt9_Any_dataRKSF_St18_Manager_operation
_ZNSt14_Function_base13_Base_managerISt5_BindIFSt7_Mem_fnIMN7cocos2d2ui6LayoutEFiNS4_6Widget14FocusDirectionEPS6_EEPS5_St12_PlaceholderILi1EESD_ILi2EEEEE10_M_destroyERSt9_Any_dataSt17integral_constantIbLb0EE
_ZNSt14_Function_base13_Base_managerISt5_BindIFSt7_Mem_fnIMN7cocos2d2ui6LayoutEFiNS4_6Widget14FocusDirectionEPS6_EEPS5_St12_PlaceholderILi1EESD_ILi2EEEEE10_M_managerERSt9_Any_dataRKSJ_St18_Manager_operation
_ZNSt14_Function_base13_Base_managerISt5_BindIFSt7_Mem_fnIMN7cocos2d2ui6LayoutEFiNS4_6Widget14FocusDirectionEPS6_EEPS5_St12_PlaceholderILi1EESD_ILi2EEEEE14_M_get_pointerERKSt9_Any_data
_ZNSt14_Function_base13_Base_managerISt5_BindIFSt7_Mem_fnIMN7cocos2d2ui6LayoutEFiNS4_6Widget14FocusDirectionEPS6_EEPS5_St12_PlaceholderILi1EESD_ILi2EEEEE15_M_init_functorERSt9_Any_dataOSH_
_ZNSt14_Function_base13_Base_managerISt5_BindIFSt7_Mem_fnIMN7cocos2d2ui6LayoutEFiNS4_6Widget14FocusDirectionEPS6_EEPS5_St12_PlaceholderILi1EESD_ILi2EEEEE15_M_init_functorERSt9_Any_dataOSH_St17integral_constantIbLb0EE
_ZNSt14_Function_base13_Base_managerISt5_BindIFSt7_Mem_fnIMN7cocos2d2ui6LayoutEFiNS4_6Widget14FocusDirectionEPS6_EEPS5_St12_PlaceholderILi1EESD_ILi2EEEEE21_M_not_empty_functionISH_EEbRKT_
_ZNSt14_Function_base13_Base_managerISt5_BindIFSt7_Mem_fnIMN7cocos2d2ui6LayoutEFiNS4_6Widget14FocusDirectionEPS6_EEPS5_St12_PlaceholderILi1EESD_ILi2EEEEE8_M_cloneERSt9_Any_dataRKSJ_St17integral_constantIbLb0EE
_ZNSt14_Function_base13_Base_managerISt5_BindIFSt7_Mem_fnIMN7cocos2d2ui6Widget25FocusNavigationControllerEFvNS3_13EventKeyboard7KeyCodeEPNS3_5EventEEEPS6_St12_PlaceholderILi1EESF_ILi2EEEEE10_M_destroyERSt9_Any_dataSt17integral_constantIbLb0EE
_ZNSt14_Function_base13_Base_managerISt5_BindIFSt7_Mem_fnIMN7cocos2d2ui6Widget25FocusNavigationControllerEFvNS3_13EventKeyboard7KeyCodeEPNS3_5EventEEEPS6_St12_PlaceholderILi1EESF_ILi2EEEEE10_M_managerERSt9_Any_dataRKSL_St18_Manager_operation
_ZNSt14_Function_base13_Base_managerISt5_BindIFSt7_Mem_fnIMN7cocos2d2ui6Widget25FocusNavigationControllerEFvNS3_13EventKeyboard7KeyCodeEPNS3_5EventEEEPS6_St12_PlaceholderILi1EESF_ILi2EEEEE14_M_get_pointerERKSt9_Any_data
_ZNSt14_Function_base13_Base_managerISt5_BindIFSt7_Mem_fnIMN7cocos2d2ui6Widget25FocusNavigationControllerEFvNS3_13EventKeyboard7KeyCodeEPNS3_5EventEEEPS6_St12_PlaceholderILi1EESF_ILi2EEEEE15_M_init_functorERSt9_Any_dataOSJ_
_ZNSt14_Function_base13_Base_managerISt5_BindIFSt7_Mem_fnIMN7cocos2d2ui6Widget25FocusNavigationControllerEFvNS3_13EventKeyboard7KeyCodeEPNS3_5EventEEEPS6_St12_PlaceholderILi1EESF_ILi2EEEEE15_M_init_functorERSt9_Any_dataOSJ_St17integral_constantIbLb0EE
_ZNSt14_Function_base13_Base_managerISt5_BindIFSt7_Mem_fnIMN7cocos2d2ui6Widget25FocusNavigationControllerEFvNS3_13EventKeyboard7KeyCodeEPNS3_5EventEEEPS6_St12_PlaceholderILi1EESF_ILi2EEEEE21_M_not_empty_functionISJ_EEbRKT_
_ZNSt14_Function_base13_Base_managerISt5_BindIFSt7_Mem_fnIMN7cocos2d2ui6Widget25FocusNavigationControllerEFvNS3_13EventKeyboard7KeyCodeEPNS3_5EventEEEPS6_St12_PlaceholderILi1EESF_ILi2EEEEE8_M_cloneERSt9_Any_dataRKSL_St17integral_constantIbLb0EE
_ZNSt14_Function_base13_Base_managerISt5_BindIFSt7_Mem_fnIMN7cocos2d2ui6WidgetEFbPNS3_5TouchEPNS3_5EventEEEPS5_St12_PlaceholderILi1EESE_ILi2EEEEE10_M_destroyERSt9_Any_dataSt17integral_constantIbLb0EE
_ZNSt14_Function_base13_Base_managerISt5_BindIFSt7_Mem_fnIMN7cocos2d2ui6WidgetEFbPNS3_5TouchEPNS3_5EventEEEPS5_St12_PlaceholderILi1EESE_ILi2EEEEE10_M_managerERSt9_Any_dataRKSK_St18_Manager_operation
_ZNSt14_Function_base13_Base_managerISt5_BindIFSt7_Mem_fnIMN7cocos2d2ui6WidgetEFbPNS3_5TouchEPNS3_5EventEEEPS5_St12_PlaceholderILi1EESE_ILi2EEEEE14_M_get_pointerERKSt9_Any_data
_ZNSt14_Function_base13_Base_managerISt5_BindIFSt7_Mem_fnIMN7cocos2d2ui6WidgetEFbPNS3_5TouchEPNS3_5EventEEEPS5_St12_PlaceholderILi1EESE_ILi2EEEEE15_M_init_functorERSt9_Any_dataOSI_
_ZNSt14_Function_base13_Base_managerISt5_BindIFSt7_Mem_fnIMN7cocos2d2ui6WidgetEFbPNS3_5TouchEPNS3_5EventEEEPS5_St12_PlaceholderILi1EESE_ILi2EEEEE15_M_init_functorERSt9_Any_dataOSI_St17integral_constantIbLb0EE
_ZNSt14_Function_base13_Base_managerISt5_BindIFSt7_Mem_fnIMN7cocos2d2ui6WidgetEFbPNS3_5TouchEPNS3_5EventEEEPS5_St12_PlaceholderILi1EESE_ILi2EEEEE21_M_not_empty_functionISI_EEbRKT_
_ZNSt14_Function_base13_Base_managerISt5_BindIFSt7_Mem_fnIMN7cocos2d2ui6WidgetEFbPNS3_5TouchEPNS3_5EventEEEPS5_St12_PlaceholderILi1EESE_ILi2EEEEE8_M_cloneERSt9_Any_dataRKSK_St17integral_constantIbLb0EE
_ZNSt14_Function_base13_Base_managerISt5_BindIFSt7_Mem_fnIMN7cocos2d2ui6WidgetEFvPNS3_5TouchEPNS3_5EventEEEPS5_St12_PlaceholderILi1EESE_ILi2EEEEE10_M_destroyERSt9_Any_dataSt17integral_constantIbLb0EE
_ZNSt14_Function_base13_Base_managerISt5_BindIFSt7_Mem_fnIMN7cocos2d2ui6WidgetEFvPNS3_5TouchEPNS3_5EventEEEPS5_St12_PlaceholderILi1EESE_ILi2EEEEE10_M_managerERSt9_Any_dataRKSK_St18_Manager_operation
_ZNSt14_Function_base13_Base_managerISt5_BindIFSt7_Mem_fnIMN7cocos2d2ui6WidgetEFvPNS3_5TouchEPNS3_5EventEEEPS5_St12_PlaceholderILi1EESE_ILi2EEEEE14_M_get_pointerERKSt9_Any_data
_ZNSt14_Function_base13_Base_managerISt5_BindIFSt7_Mem_fnIMN7cocos2d2ui6WidgetEFvPNS3_5TouchEPNS3_5EventEEEPS5_St12_PlaceholderILi1EESE_ILi2EEEEE15_M_init_functorERSt9_Any_dataOSI_
_ZNSt14_Function_base13_Base_managerISt5_BindIFSt7_Mem_fnIMN7cocos2d2ui6WidgetEFvPNS3_5TouchEPNS3_5EventEEEPS5_St12_PlaceholderILi1EESE_ILi2EEEEE15_M_init_functorERSt9_Any_dataOSI_St17integral_constantIbLb0EE
_ZNSt14_Function_base13_Base_managerISt5_BindIFSt7_Mem_fnIMN7cocos2d2ui6WidgetEFvPNS3_5TouchEPNS3_5EventEEEPS5_St12_PlaceholderILi1EESE_ILi2EEEEE21_M_not_empty_functionISI_EEbRKT_
_ZNSt14_Function_base13_Base_managerISt5_BindIFSt7_Mem_fnIMN7cocos2d2ui6WidgetEFvPNS3_5TouchEPNS3_5EventEEEPS5_St12_PlaceholderILi1EESE_ILi2EEEEE8_M_cloneERSt9_Any_dataRKSK_St17integral_constantIbLb0EE
_ZNSt14_Function_base13_Base_managerISt5_BindIFSt7_Mem_fnIMN7cocos2d2ui6WidgetEFvPS5_S6_EES6_St12_PlaceholderILi1EESA_ILi2EEEEE10_M_destroyERSt9_Any_dataSt17integral_constantIbLb0EE
_ZNSt14_Function_base13_Base_managerISt5_BindIFSt7_Mem_fnIMN7cocos2d2ui6WidgetEFvPS5_S6_EES6_St12_PlaceholderILi1EESA_ILi2EEEEE10_M_managerERSt9_Any_dataRKSG_St18_Manager_operation
_ZNSt14_Function_base13_Base_managerISt5_BindIFSt7_Mem_fnIMN7cocos2d2ui6WidgetEFvPS5_S6_EES6_St12_PlaceholderILi1EESA_ILi2EEEEE14_M_get_pointerERKSt9_Any_data
_ZNSt14_Function_base13_Base_managerISt5_BindIFSt7_Mem_fnIMN7cocos2d2ui6WidgetEFvPS5_S6_EES6_St12_PlaceholderILi1EESA_ILi2EEEEE15_M_init_functorERSt9_Any_dataOSE_
_ZNSt14_Function_base13_Base_managerISt5_BindIFSt7_Mem_fnIMN7cocos2d2ui6WidgetEFvPS5_S6_EES6_St12_PlaceholderILi1EESA_ILi2EEEEE15_M_init_functorERSt9_Any_dataOSE_St17integral_constantIbLb0EE
_ZNSt14_Function_base13_Base_managerISt5_BindIFSt7_Mem_fnIMN7cocos2d2ui6WidgetEFvPS5_S6_EES6_St12_PlaceholderILi1EESA_ILi2EEEEE21_M_not_empty_functionISE_EEbRKT_
_ZNSt14_Function_base13_Base_managerISt5_BindIFSt7_Mem_fnIMN7cocos2d2ui6WidgetEFvPS5_S6_EES6_St12_PlaceholderILi1EESA_ILi2EEEEE8_M_cloneERSt9_Any_dataRKSG_St17integral_constantIbLb0EE
_ZNSt14_Function_base13_Base_managerISt5_BindIFSt7_Mem_fnIMN7cocos2d5LayerEFbPNS3_5TouchEPNS3_5EventEEEP22BattleRowLayerForBurstSt12_PlaceholderILi1EESE_ILi2EEEEE10_M_managerERSt9_Any_dataRKSK_St18_Manager_operation
_ZNSt14_Function_base13_Base_managerISt5_BindIFSt7_Mem_fnIMN7cocos2d5LayerEFbPNS3_5TouchEPNS3_5EventEEEP26BattleRowLayerForAccompanySt12_PlaceholderILi1EESE_ILi2EEEEE10_M_managerERSt9_Any_dataRKSK_St18_Manager_operation
_ZNSt14_Function_base13_Base_managerISt5_BindIFSt7_Mem_fnIMN7cocos2d5LayerEFbPNS3_5TouchEPNS3_5EventEEEPS4_St12_PlaceholderILi1EESD_ILi2EEEEE10_M_destroyERSt9_Any_dataSt17integral_constantIbLb0EE
_ZNSt14_Function_base13_Base_managerISt5_BindIFSt7_Mem_fnIMN7cocos2d5LayerEFbPNS3_5TouchEPNS3_5EventEEEPS4_St12_PlaceholderILi1EESD_ILi2EEEEE10_M_managerERSt9_Any_dataRKSJ_St18_Manager_operation
_ZNSt14_Function_base13_Base_managerISt5_BindIFSt7_Mem_fnIMN7cocos2d5LayerEFbPNS3_5TouchEPNS3_5EventEEEPS4_St12_PlaceholderILi1EESD_ILi2EEEEE14_M_get_pointerERKSt9_Any_data
_ZNSt14_Function_base13_Base_managerISt5_BindIFSt7_Mem_fnIMN7cocos2d5LayerEFbPNS3_5TouchEPNS3_5EventEEEPS4_St12_PlaceholderILi1EESD_ILi2EEEEE15_M_init_functorERSt9_Any_dataOSH_
_ZNSt14_Function_base13_Base_managerISt5_BindIFSt7_Mem_fnIMN7cocos2d5LayerEFbPNS3_5TouchEPNS3_5EventEEEPS4_St12_PlaceholderILi1EESD_ILi2EEEEE15_M_init_functorERSt9_Any_dataOSH_St17integral_constantIbLb0EE
_ZNSt14_Function_base13_Base_managerISt5_BindIFSt7_Mem_fnIMN7cocos2d5LayerEFbPNS3_5TouchEPNS3_5EventEEEPS4_St12_PlaceholderILi1EESD_ILi2EEEEE21_M_not_empty_functionISH_EEbRKT_
_ZNSt14_Function_base13_Base_managerISt5_BindIFSt7_Mem_fnIMN7cocos2d5LayerEFbPNS3_5TouchEPNS3_5EventEEEPS4_St12_PlaceholderILi1EESD_ILi2EEEEE8_M_cloneERSt9_Any_dataRKSJ_St17integral_constantIbLb0EE
_ZNSt14_Function_base13_Base_managerISt5_BindIFSt7_Mem_fnIMN7cocos2d5LayerEFvNS3_13EventKeyboard7KeyCodeEPNS3_5EventEEEPS4_St12_PlaceholderILi1EESD_ILi2EEEEE10_M_destroyERSt9_Any_dataSt17integral_constantIbLb0EE
_ZNSt14_Function_base13_Base_managerISt5_BindIFSt7_Mem_fnIMN7cocos2d5LayerEFvNS3_13EventKeyboard7KeyCodeEPNS3_5EventEEEPS4_St12_PlaceholderILi1EESD_ILi2EEEEE10_M_managerERSt9_Any_dataRKSJ_St18_Manager_operation
_ZNSt14_Function_base13_Base_managerISt5_BindIFSt7_Mem_fnIMN7cocos2d5LayerEFvNS3_13EventKeyboard7KeyCodeEPNS3_5EventEEEPS4_St12_PlaceholderILi1EESD_ILi2EEEEE14_M_get_pointerERKSt9_Any_data
_ZNSt14_Function_base13_Base_managerISt5_BindIFSt7_Mem_fnIMN7cocos2d5LayerEFvNS3_13EventKeyboard7KeyCodeEPNS3_5EventEEEPS4_St12_PlaceholderILi1EESD_ILi2EEEEE15_M_init_functorERSt9_Any_dataOSH_
_ZNSt14_Function_base13_Base_managerISt5_BindIFSt7_Mem_fnIMN7cocos2d5LayerEFvNS3_13EventKeyboard7KeyCodeEPNS3_5EventEEEPS4_St12_PlaceholderILi1EESD_ILi2EEEEE15_M_init_functorERSt9_Any_dataOSH_St17integral_constantIbLb0EE
_ZNSt14_Function_base13_Base_managerISt5_BindIFSt7_Mem_fnIMN7cocos2d5LayerEFvNS3_13EventKeyboard7KeyCodeEPNS3_5EventEEEPS4_St12_PlaceholderILi1EESD_ILi2EEEEE21_M_not_empty_functionISH_EEbRKT_
_ZNSt14_Function_base13_Base_managerISt5_BindIFSt7_Mem_fnIMN7cocos2d5LayerEFvNS3_13EventKeyboard7KeyCodeEPNS3_5EventEEEPS4_St12_PlaceholderILi1EESD_ILi2EEEEE8_M_cloneERSt9_Any_dataRKSJ_St17integral_constantIbLb0EE
_ZNSt14_Function_base13_Base_managerISt5_BindIFSt7_Mem_fnIMN7cocos2d5LayerEFvPNS3_12AccelerationEPNS3_5EventEEEPS4_St12_PlaceholderILi1EESD_ILi2EEEEE10_M_destroyERSt9_Any_dataSt17integral_constantIbLb0EE
_ZNSt14_Function_base13_Base_managerISt5_BindIFSt7_Mem_fnIMN7cocos2d5LayerEFvPNS3_12AccelerationEPNS3_5EventEEEPS4_St12_PlaceholderILi1EESD_ILi2EEEEE10_M_managerERSt9_Any_dataRKSJ_St18_Manager_operation
_ZNSt14_Function_base13_Base_managerISt5_BindIFSt7_Mem_fnIMN7cocos2d5LayerEFvPNS3_12AccelerationEPNS3_5EventEEEPS4_St12_PlaceholderILi1EESD_ILi2EEEEE14_M_get_pointerERKSt9_Any_data
_ZNSt14_Function_base13_Base_managerISt5_BindIFSt7_Mem_fnIMN7cocos2d5LayerEFvPNS3_12AccelerationEPNS3_5EventEEEPS4_St12_PlaceholderILi1EESD_ILi2EEEEE15_M_init_functorERSt9_Any_dataOSH_
_ZNSt14_Function_base13_Base_managerISt5_BindIFSt7_Mem_fnIMN7cocos2d5LayerEFvPNS3_12AccelerationEPNS3_5EventEEEPS4_St12_PlaceholderILi1EESD_ILi2EEEEE15_M_init_functorERSt9_Any_dataOSH_St17integral_constantIbLb0EE
_ZNSt14_Function_base13_Base_managerISt5_BindIFSt7_Mem_fnIMN7cocos2d5LayerEFvPNS3_12AccelerationEPNS3_5EventEEEPS4_St12_PlaceholderILi1EESD_ILi2EEEEE21_M_not_empty_functionISH_EEbRKT_
_ZNSt14_Function_base13_Base_managerISt5_BindIFSt7_Mem_fnIMN7cocos2d5LayerEFvPNS3_12AccelerationEPNS3_5EventEEEPS4_St12_PlaceholderILi1EESD_ILi2EEEEE8_M_cloneERSt9_Any_dataRKSJ_St17integral_constantIbLb0EE
_ZNSt14_Function_base13_Base_managerISt5_BindIFSt7_Mem_fnIMN7cocos2d5LayerEFvPNS3_5TouchEPNS3_5EventEEEP22BattleRowLayerForBurstSt12_PlaceholderILi1EESE_ILi2EEEEE10_M_managerERSt9_Any_dataRKSK_St18_Manager_operation
_ZNSt14_Function_base13_Base_managerISt5_BindIFSt7_Mem_fnIMN7cocos2d5LayerEFvPNS3_5TouchEPNS3_5EventEEEP22UIDialogShareRedPacketSt12_PlaceholderILi1EESE_ILi2EEEEE10_M_managerERSt9_Any_dataRKSK_St18_Manager_operation
_ZNSt14_Function_base13_Base_managerISt5_BindIFSt7_Mem_fnIMN7cocos2d5LayerEFvPNS3_5TouchEPNS3_5EventEEEP26BattleRowLayerForAccompanySt12_PlaceholderILi1EESE_ILi2EEEEE10_M_managerERSt9_Any_dataRKSK_St18_Manager_operation
_ZNSt14_Function_base13_Base_managerISt5_BindIFSt7_Mem_fnIMN7cocos2d5LayerEFvPNS3_5TouchEPNS3_5EventEEEPN22UIDialogShareRedPacket16WechatShareLayerESt12_PlaceholderILi1EESF_ILi2EEEEE10_M_managerERSt9_Any_dataRKSL_St18_Manager_operation
_ZNSt14_Function_base13_Base_managerISt5_BindIFSt7_Mem_fnIMN7cocos2d5LayerEFvPNS3_5TouchEPNS3_5EventEEEPS4_St12_PlaceholderILi1EESD_ILi2EEEEE10_M_destroyERSt9_Any_dataSt17integral_constantIbLb0EE
_ZNSt14_Function_base13_Base_managerISt5_BindIFSt7_Mem_fnIMN7cocos2d5LayerEFvPNS3_5TouchEPNS3_5EventEEEPS4_St12_PlaceholderILi1EESD_ILi2EEEEE10_M_managerERSt9_Any_dataRKSJ_St18_Manager_operation
_ZNSt14_Function_base13_Base_managerISt5_BindIFSt7_Mem_fnIMN7cocos2d5LayerEFvPNS3_5TouchEPNS3_5EventEEEPS4_St12_PlaceholderILi1EESD_ILi2EEEEE14_M_get_pointerERKSt9_Any_data
_ZNSt14_Function_base13_Base_managerISt5_BindIFSt7_Mem_fnIMN7cocos2d5LayerEFvPNS3_5TouchEPNS3_5EventEEEPS4_St12_PlaceholderILi1EESD_ILi2EEEEE15_M_init_functorERSt9_Any_dataOSH_
_ZNSt14_Function_base13_Base_managerISt5_BindIFSt7_Mem_fnIMN7cocos2d5LayerEFvPNS3_5TouchEPNS3_5EventEEEPS4_St12_PlaceholderILi1EESD_ILi2EEEEE15_M_init_functorERSt9_Any_dataOSH_St17integral_constantIbLb0EE
_ZNSt14_Function_base13_Base_managerISt5_BindIFSt7_Mem_fnIMN7cocos2d5LayerEFvPNS3_5TouchEPNS3_5EventEEEPS4_St12_PlaceholderILi1EESD_ILi2EEEEE21_M_not_empty_functionISH_EEbRKT_
_ZNSt14_Function_base13_Base_managerISt5_BindIFSt7_Mem_fnIMN7cocos2d5LayerEFvPNS3_5TouchEPNS3_5EventEEEPS4_St12_PlaceholderILi1EESD_ILi2EEEEE8_M_cloneERSt9_Any_dataRKSJ_St17integral_constantIbLb0EE
_ZNSt14_Function_base13_Base_managerISt5_BindIFSt7_Mem_fnIMN7cocos2d5LayerEFvRKSt6vectorIPNS3_5TouchESaIS7_EEPNS3_5EventEEEPS4_St12_PlaceholderILi1EESI_ILi2EEEEE10_M_destroyERSt9_Any_dataSt17integral_constantIbLb0EE
_ZNSt14_Function_base13_Base_managerISt5_BindIFSt7_Mem_fnIMN7cocos2d5LayerEFvRKSt6vectorIPNS3_5TouchESaIS7_EEPNS3_5EventEEEPS4_St12_PlaceholderILi1EESI_ILi2EEEEE10_M_managerERSt9_Any_dataRKSO_St18_Manager_operation
_ZNSt14_Function_base13_Base_managerISt5_BindIFSt7_Mem_fnIMN7cocos2d5LayerEFvRKSt6vectorIPNS3_5TouchESaIS7_EEPNS3_5EventEEEPS4_St12_PlaceholderILi1EESI_ILi2EEEEE14_M_get_pointerERKSt9_Any_data
_ZNSt14_Function_base13_Base_managerISt5_BindIFSt7_Mem_fnIMN7cocos2d5LayerEFvRKSt6vectorIPNS3_5TouchESaIS7_EEPNS3_5EventEEEPS4_St12_PlaceholderILi1EESI_ILi2EEEEE15_M_init_functorERSt9_Any_dataOSM_
_ZNSt14_Function_base13_Base_managerISt5_BindIFSt7_Mem_fnIMN7cocos2d5LayerEFvRKSt6vectorIPNS3_5TouchESaIS7_EEPNS3_5EventEEEPS4_St12_PlaceholderILi1EESI_ILi2EEEEE15_M_init_functorERSt9_Any_dataOSM_St17integral_constantIbLb0EE
_ZNSt14_Function_base13_Base_managerISt5_BindIFSt7_Mem_fnIMN7cocos2d5LayerEFvRKSt6vectorIPNS3_5TouchESaIS7_EEPNS3_5EventEEEPS4_St12_PlaceholderILi1EESI_ILi2EEEEE21_M_not_empty_functionISM_EEbRKT_
_ZNSt14_Function_base13_Base_managerISt5_BindIFSt7_Mem_fnIMN7cocos2d5LayerEFvRKSt6vectorIPNS3_5TouchESaIS7_EEPNS3_5EventEEEPS4_St12_PlaceholderILi1EESI_ILi2EEEEE8_M_cloneERSt9_Any_dataRKSO_St17integral_constantIbLb0EE
_ZNSt14_Function_base13_Base_managerISt5_BindIFSt7_Mem_fnIMN7cocos2d5SceneEFvPNS3_11EventCustomEEEPS4_St12_PlaceholderILi1EEEEE10_M_destroyERSt9_Any_dataSt17integral_constantIbLb0EE
_ZNSt14_Function_base13_Base_managerISt5_BindIFSt7_Mem_fnIMN7cocos2d5SceneEFvPNS3_11EventCustomEEEPS4_St12_PlaceholderILi1EEEEE10_M_managerERSt9_Any_dataRKSG_St18_Manager_operation
_ZNSt14_Function_base13_Base_managerISt5_BindIFSt7_Mem_fnIMN7cocos2d5SceneEFvPNS3_11EventCustomEEEPS4_St12_PlaceholderILi1EEEEE14_M_get_pointerERKSt9_Any_data
_ZNSt14_Function_base13_Base_managerISt5_BindIFSt7_Mem_fnIMN7cocos2d5SceneEFvPNS3_11EventCustomEEEPS4_St12_PlaceholderILi1EEEEE15_M_init_functorERSt9_Any_dataOSE_
_ZNSt14_Function_base13_Base_managerISt5_BindIFSt7_Mem_fnIMN7cocos2d5SceneEFvPNS3_11EventCustomEEEPS4_St12_PlaceholderILi1EEEEE15_M_init_functorERSt9_Any_dataOSE_St17integral_constantIbLb0EE
_ZNSt14_Function_base13_Base_managerISt5_BindIFSt7_Mem_fnIMN7cocos2d5SceneEFvPNS3_11EventCustomEEEPS4_St12_PlaceholderILi1EEEEE21_M_not_empty_functionISE_EEbRKT_
_ZNSt14_Function_base13_Base_managerISt5_BindIFSt7_Mem_fnIMN7cocos2d5SceneEFvPNS3_11EventCustomEEEPS4_St12_PlaceholderILi1EEEEE8_M_cloneERSt9_Any_dataRKSG_St17integral_constantIbLb0EE
_ZNSt14_Function_base13_Base_managerISt5_BindIFSt7_Mem_fnIMN7cocos2d7ConsoleEFviEEPS4_St12_PlaceholderILi1EEEEE10_M_destroyERSt9_Any_dataSt17integral_constantIbLb0EE
_ZNSt14_Function_base13_Base_managerISt5_BindIFSt7_Mem_fnIMN7cocos2d7ConsoleEFviEEPS4_St12_PlaceholderILi1EEEEE10_M_managerERSt9_Any_dataRKSE_St18_Manager_operation
_ZNSt14_Function_base13_Base_managerISt5_BindIFSt7_Mem_fnIMN7cocos2d7ConsoleEFviEEPS4_St12_PlaceholderILi1EEEEE14_M_get_pointerERKSt9_Any_data
_ZNSt14_Function_base13_Base_managerISt5_BindIFSt7_Mem_fnIMN7cocos2d7ConsoleEFviEEPS4_St12_PlaceholderILi1EEEEE15_M_init_functorERSt9_Any_dataOSC_
_ZNSt14_Function_base13_Base_managerISt5_BindIFSt7_Mem_fnIMN7cocos2d7ConsoleEFviEEPS4_St12_PlaceholderILi1EEEEE15_M_init_functorERSt9_Any_dataOSC_St17integral_constantIbLb0EE
_ZNSt14_Function_base13_Base_managerISt5_BindIFSt7_Mem_fnIMN7cocos2d7ConsoleEFviEEPS4_St12_PlaceholderILi1EEEEE21_M_not_empty_functionISC_EEbRKT_
_ZNSt14_Function_base13_Base_managerISt5_BindIFSt7_Mem_fnIMN7cocos2d7ConsoleEFviEEPS4_St12_PlaceholderILi1EEEEE8_M_cloneERSt9_Any_dataRKSE_St17integral_constantIbLb0EE
_ZNSt14_Function_base13_Base_managerISt5_BindIFSt7_Mem_fnIMN7cocos2d7ConsoleEFviRKSsEEPS4_St12_PlaceholderILi1EESB_ILi2EEEEE10_M_destroyERSt9_Any_dataSt17integral_constantIbLb0EE
_ZNSt14_Function_base13_Base_managerISt5_BindIFSt7_Mem_fnIMN7cocos2d7ConsoleEFviRKSsEEPS4_St12_PlaceholderILi1EESB_ILi2EEEEE10_M_managerERSt9_Any_dataRKSH_St18_Manager_operation
_ZNSt14_Function_base13_Base_managerISt5_BindIFSt7_Mem_fnIMN7cocos2d7ConsoleEFviRKSsEEPS4_St12_PlaceholderILi1EESB_ILi2EEEEE14_M_get_pointerERKSt9_Any_data
_ZNSt14_Function_base13_Base_managerISt5_BindIFSt7_Mem_fnIMN7cocos2d7ConsoleEFviRKSsEEPS4_St12_PlaceholderILi1EESB_ILi2EEEEE15_M_init_functorERSt9_Any_dataOSF_
_ZNSt14_Function_base13_Base_managerISt5_BindIFSt7_Mem_fnIMN7cocos2d7ConsoleEFviRKSsEEPS4_St12_PlaceholderILi1EESB_ILi2EEEEE15_M_init_functorERSt9_Any_dataOSF_St17integral_constantIbLb0EE
_ZNSt14_Function_base13_Base_managerISt5_BindIFSt7_Mem_fnIMN7cocos2d7ConsoleEFviRKSsEEPS4_St12_PlaceholderILi1EESB_ILi2EEEEE21_M_not_empty_functionISF_EEbRKT_
_ZNSt14_Function_base13_Base_managerISt5_BindIFSt7_Mem_fnIMN7cocos2d7ConsoleEFviRKSsEEPS4_St12_PlaceholderILi1EESB_ILi2EEEEE8_M_cloneERSt9_Any_dataRKSH_St17integral_constantIbLb0EE
_ZNSt14_Function_base13_Base_managerISt5_BindIFSt7_Mem_fnIMN7cocos2d8CSLoaderEFPNS3_4NodeERKN9rapidjson12GenericValueINS7_4UTF8IcEENS7_19MemoryPoolAllocatorINS7_12CrtAllocatorEEEEEEEPS4_St12_PlaceholderILi1EEEEE10_M_destroyERSt9_Any_dataSt17integral_constantIbLb0EE
_ZNSt14_Function_base13_Base_managerISt5_BindIFSt7_Mem_fnIMN7cocos2d8CSLoaderEFPNS3_4NodeERKN9rapidjson12GenericValueINS7_4UTF8IcEENS7_19MemoryPoolAllocatorINS7_12CrtAllocatorEEEEEEEPS4_St12_PlaceholderILi1EEEEE10_M_managerERSt9_Any_dataRKSQ_St18_Manager_operation
_ZNSt14_Function_base13_Base_managerISt5_BindIFSt7_Mem_fnIMN7cocos2d8CSLoaderEFPNS3_4NodeERKN9rapidjson12GenericValueINS7_4UTF8IcEENS7_19MemoryPoolAllocatorINS7_12CrtAllocatorEEEEEEEPS4_St12_PlaceholderILi1EEEEE14_M_get_pointerERKSt9_Any_data
_ZNSt14_Function_base13_Base_managerISt5_BindIFSt7_Mem_fnIMN7cocos2d8CSLoaderEFPNS3_4NodeERKN9rapidjson12GenericValueINS7_4UTF8IcEENS7_19MemoryPoolAllocatorINS7_12CrtAllocatorEEEEEEEPS4_St12_PlaceholderILi1EEEEE15_M_init_functorERSt9_Any_dataOSO_
_ZNSt14_Function_base13_Base_managerISt5_BindIFSt7_Mem_fnIMN7cocos2d8CSLoaderEFPNS3_4NodeERKN9rapidjson12GenericValueINS7_4UTF8IcEENS7_19MemoryPoolAllocatorINS7_12CrtAllocatorEEEEEEEPS4_St12_PlaceholderILi1EEEEE15_M_init_functorERSt9_Any_dataOSO_St17integral_constantIbLb0EE
_ZNSt14_Function_base13_Base_managerISt5_BindIFSt7_Mem_fnIMN7cocos2d8CSLoaderEFPNS3_4NodeERKN9rapidjson12GenericValueINS7_4UTF8IcEENS7_19MemoryPoolAllocatorINS7_12CrtAllocatorEEEEEEEPS4_St12_PlaceholderILi1EEEEE21_M_not_empty_functionISO_EEbRKT_
_ZNSt14_Function_base13_Base_managerISt5_BindIFSt7_Mem_fnIMN7cocos2d8CSLoaderEFPNS3_4NodeERKN9rapidjson12GenericValueINS7_4UTF8IcEENS7_19MemoryPoolAllocatorINS7_12CrtAllocatorEEEEEEEPS4_St12_PlaceholderILi1EEEEE8_M_cloneERSt9_Any_dataRKSQ_St17integral_constantIbLb0EE
_ZNSt14_Function_base13_Base_managerISt5_BindIFSt7_Mem_fnIMN7cocos2d8CSLoaderEFPNS3_9ComponentERKN9rapidjson12GenericValueINS7_4UTF8IcEENS7_19MemoryPoolAllocatorINS7_12CrtAllocatorEEEEEEEPS4_St12_PlaceholderILi1EEEEE10_M_destroyERSt9_Any_dataSt17integral_constantIbLb0EE
_ZNSt14_Function_base13_Base_managerISt5_BindIFSt7_Mem_fnIMN7cocos2d8CSLoaderEFPNS3_9ComponentERKN9rapidjson12GenericValueINS7_4UTF8IcEENS7_19MemoryPoolAllocatorINS7_12CrtAllocatorEEEEEEEPS4_St12_PlaceholderILi1EEEEE10_M_managerERSt9_Any_dataRKSQ_St18_Manager_operation
_ZNSt14_Function_base13_Base_managerISt5_BindIFSt7_Mem_fnIMN7cocos2d8CSLoaderEFPNS3_9ComponentERKN9rapidjson12GenericValueINS7_4UTF8IcEENS7_19MemoryPoolAllocatorINS7_12CrtAllocatorEEEEEEEPS4_St12_PlaceholderILi1EEEEE14_M_get_pointerERKSt9_Any_data
_ZNSt14_Function_base13_Base_managerISt5_BindIFSt7_Mem_fnIMN7cocos2d8CSLoaderEFPNS3_9ComponentERKN9rapidjson12GenericValueINS7_4UTF8IcEENS7_19MemoryPoolAllocatorINS7_12CrtAllocatorEEEEEEEPS4_St12_PlaceholderILi1EEEEE15_M_init_functorERSt9_Any_dataOSO_
_ZNSt14_Function_base13_Base_managerISt5_BindIFSt7_Mem_fnIMN7cocos2d8CSLoaderEFPNS3_9ComponentERKN9rapidjson12GenericValueINS7_4UTF8IcEENS7_19MemoryPoolAllocatorINS7_12CrtAllocatorEEEEEEEPS4_St12_PlaceholderILi1EEEEE15_M_init_functorERSt9_Any_dataOSO_St17integral_constantIbLb0EE
_ZNSt14_Function_base13_Base_managerISt5_BindIFSt7_Mem_fnIMN7cocos2d8CSLoaderEFPNS3_9ComponentERKN9rapidjson12GenericValueINS7_4UTF8IcEENS7_19MemoryPoolAllocatorINS7_12CrtAllocatorEEEEEEEPS4_St12_PlaceholderILi1EEEEE21_M_not_empty_functionISO_EEbRKT_
_ZNSt14_Function_base13_Base_managerISt5_BindIFSt7_Mem_fnIMN7cocos2d8CSLoaderEFPNS3_9ComponentERKN9rapidjson12GenericValueINS7_4UTF8IcEENS7_19MemoryPoolAllocatorINS7_12CrtAllocatorEEEEEEEPS4_St12_PlaceholderILi1EEEEE8_M_cloneERSt9_Any_dataRKSQ_St17integral_constantIbLb0EE
_ZNSt14_Function_base13_Base_managerISt5_BindIFSt7_Mem_fnIMN7cocos2d9FontAtlasEFvPNS3_11EventCustomEEEPS4_St12_PlaceholderILi1EEEEE10_M_destroyERSt9_Any_dataSt17integral_constantIbLb0EE
_ZNSt14_Function_base13_Base_managerISt5_BindIFSt7_Mem_fnIMN7cocos2d9FontAtlasEFvPNS3_11EventCustomEEEPS4_St12_PlaceholderILi1EEEEE10_M_managerERSt9_Any_dataRKSG_St18_Manager_operation
_ZNSt14_Function_base13_Base_managerISt5_BindIFSt7_Mem_fnIMN7cocos2d9FontAtlasEFvPNS3_11EventCustomEEEPS4_St12_PlaceholderILi1EEEEE14_M_get_pointerERKSt9_Any_data
_ZNSt14_Function_base13_Base_managerISt5_BindIFSt7_Mem_fnIMN7cocos2d9FontAtlasEFvPNS3_11EventCustomEEEPS4_St12_PlaceholderILi1EEEEE15_M_init_functorERSt9_Any_dataOSE_
_ZNSt14_Function_base13_Base_managerISt5_BindIFSt7_Mem_fnIMN7cocos2d9FontAtlasEFvPNS3_11EventCustomEEEPS4_St12_PlaceholderILi1EEEEE15_M_init_functorERSt9_Any_dataOSE_St17integral_constantIbLb0EE
_ZNSt14_Function_base13_Base_managerISt5_BindIFSt7_Mem_fnIMN7cocos2d9FontAtlasEFvPNS3_11EventCustomEEEPS4_St12_PlaceholderILi1EEEEE21_M_not_empty_functionISE_EEbRKT_
_ZNSt14_Function_base13_Base_managerISt5_BindIFSt7_Mem_fnIMN7cocos2d9FontAtlasEFvPNS3_11EventCustomEEEPS4_St12_PlaceholderILi1EEEEE8_M_cloneERSt9_Any_dataRKSG_St17integral_constantIbLb0EE
_ZNSt14_Function_base13_Base_managerISt5_BindIFSt7_Mem_fnIMN7cocos2d9extension10ScrollViewEFbPNS3_5TouchEPNS3_5EventEEEPS5_St12_PlaceholderILi1EESE_ILi2EEEEE10_M_destroyERSt9_Any_dataSt17integral_constantIbLb0EE
_ZNSt14_Function_base13_Base_managerISt5_BindIFSt7_Mem_fnIMN7cocos2d9extension10ScrollViewEFbPNS3_5TouchEPNS3_5EventEEEPS5_St12_PlaceholderILi1EESE_ILi2EEEEE10_M_managerERSt9_Any_dataRKSK_St18_Manager_operation
_ZNSt14_Function_base13_Base_managerISt5_BindIFSt7_Mem_fnIMN7cocos2d9extension10ScrollViewEFbPNS3_5TouchEPNS3_5EventEEEPS5_St12_PlaceholderILi1EESE_ILi2EEEEE14_M_get_pointerERKSt9_Any_data
_ZNSt14_Function_base13_Base_managerISt5_BindIFSt7_Mem_fnIMN7cocos2d9extension10ScrollViewEFbPNS3_5TouchEPNS3_5EventEEEPS5_St12_PlaceholderILi1EESE_ILi2EEEEE15_M_init_functorERSt9_Any_dataOSI_
_ZNSt14_Function_base13_Base_managerISt5_BindIFSt7_Mem_fnIMN7cocos2d9extension10ScrollViewEFbPNS3_5TouchEPNS3_5EventEEEPS5_St12_PlaceholderILi1EESE_ILi2EEEEE15_M_init_functorERSt9_Any_dataOSI_St17integral_constantIbLb0EE
_ZNSt14_Function_base13_Base_managerISt5_BindIFSt7_Mem_fnIMN7cocos2d9extension10ScrollViewEFbPNS3_5TouchEPNS3_5EventEEEPS5_St12_PlaceholderILi1EESE_ILi2EEEEE21_M_not_empty_functionISI_EEbRKT_
_ZNSt14_Function_base13_Base_managerISt5_BindIFSt7_Mem_fnIMN7cocos2d9extension10ScrollViewEFbPNS3_5TouchEPNS3_5EventEEEPS5_St12_PlaceholderILi1EESE_ILi2EEEEE8_M_cloneERSt9_Any_dataRKSK_St17integral_constantIbLb0EE
_ZNSt14_Function_base13_Base_managerISt5_BindIFSt7_Mem_fnIMN7cocos2d9extension10ScrollViewEFvPNS3_4NodeEEEPS5_St12_PlaceholderILi1EEEEE10_M_destroyERSt9_Any_dataSt17integral_constantIbLb0EE
_ZNSt14_Function_base13_Base_managerISt5_BindIFSt7_Mem_fnIMN7cocos2d9extension10ScrollViewEFvPNS3_4NodeEEEPS5_St12_PlaceholderILi1EEEEE10_M_managerERSt9_Any_dataRKSH_St18_Manager_operation
_ZNSt14_Function_base13_Base_managerISt5_BindIFSt7_Mem_fnIMN7cocos2d9extension10ScrollViewEFvPNS3_4NodeEEEPS5_St12_PlaceholderILi1EEEEE14_M_get_pointerERKSt9_Any_data
_ZNSt14_Function_base13_Base_managerISt5_BindIFSt7_Mem_fnIMN7cocos2d9extension10ScrollViewEFvPNS3_4NodeEEEPS5_St12_PlaceholderILi1EEEEE15_M_init_functorERSt9_Any_dataOSF_
_ZNSt14_Function_base13_Base_managerISt5_BindIFSt7_Mem_fnIMN7cocos2d9extension10ScrollViewEFvPNS3_4NodeEEEPS5_St12_PlaceholderILi1EEEEE15_M_init_functorERSt9_Any_dataOSF_St17integral_constantIbLb0EE
_ZNSt14_Function_base13_Base_managerISt5_BindIFSt7_Mem_fnIMN7cocos2d9extension10ScrollViewEFvPNS3_4NodeEEEPS5_St12_PlaceholderILi1EEEEE21_M_not_empty_functionISF_EEbRKT_
_ZNSt14_Function_base13_Base_managerISt5_BindIFSt7_Mem_fnIMN7cocos2d9extension10ScrollViewEFvPNS3_4NodeEEEPS5_St12_PlaceholderILi1EEEEE8_M_cloneERSt9_Any_dataRKSH_St17integral_constantIbLb0EE
_ZNSt14_Function_base13_Base_managerISt5_BindIFSt7_Mem_fnIMN7cocos2d9extension10ScrollViewEFvPNS3_5TouchEPNS3_5EventEEEPS5_St12_PlaceholderILi1EESE_ILi2EEEEE10_M_destroyERSt9_Any_dataSt17integral_constantIbLb0EE
_ZNSt14_Function_base13_Base_managerISt5_BindIFSt7_Mem_fnIMN7cocos2d9extension10ScrollViewEFvPNS3_5TouchEPNS3_5EventEEEPS5_St12_PlaceholderILi1EESE_ILi2EEEEE10_M_managerERSt9_Any_dataRKSK_St18_Manager_operation
_ZNSt14_Function_base13_Base_managerISt5_BindIFSt7_Mem_fnIMN7cocos2d9extension10ScrollViewEFvPNS3_5TouchEPNS3_5EventEEEPS5_St12_PlaceholderILi1EESE_ILi2EEEEE14_M_get_pointerERKSt9_Any_data
_ZNSt14_Function_base13_Base_managerISt5_BindIFSt7_Mem_fnIMN7cocos2d9extension10ScrollViewEFvPNS3_5TouchEPNS3_5EventEEEPS5_St12_PlaceholderILi1EESE_ILi2EEEEE15_M_init_functorERSt9_Any_dataOSI_
_ZNSt14_Function_base13_Base_managerISt5_BindIFSt7_Mem_fnIMN7cocos2d9extension10ScrollViewEFvPNS3_5TouchEPNS3_5EventEEEPS5_St12_PlaceholderILi1EESE_ILi2EEEEE15_M_init_functorERSt9_Any_dataOSI_St17integral_constantIbLb0EE
_ZNSt14_Function_base13_Base_managerISt5_BindIFSt7_Mem_fnIMN7cocos2d9extension10ScrollViewEFvPNS3_5TouchEPNS3_5EventEEEPS5_St12_PlaceholderILi1EESE_ILi2EEEEE21_M_not_empty_functionISI_EEbRKT_
_ZNSt14_Function_base13_Base_managerISt5_BindIFSt7_Mem_fnIMN7cocos2d9extension10ScrollViewEFvPNS3_5TouchEPNS3_5EventEEEPS5_St12_PlaceholderILi1EESE_ILi2EEEEE8_M_cloneERSt9_Any_dataRKSK_St17integral_constantIbLb0EE
_ZNSt14_Function_base13_Base_managerIZN7cocos2d9Scheduler14scheduleUpdateI10GameClientEEvPT_ibEUlfE_E10_M_managerERSt9_Any_dataRKS9_St18_Manager_operation
_ZNSt14_Function_base13_Base_managerIZN7cocos2d9Scheduler14scheduleUpdateI5PianoEEvPT_ibEUlfE_E10_M_managerERSt9_Any_dataRKS9_St18_Manager_operation
_ZNSt14__shared_countILN9__gnu_cxx12_Lock_policyE2EEC1ERKSt12__weak_countILS1_2EESt9nothrow_t
_ZNSt14__shared_countILN9__gnu_cxx12_Lock_policyE2EEC2ERKSt12__weak_countILS1_2EESt9nothrow_t
_ZNSt16_Sp_counted_baseILN9__gnu_cxx12_Lock_policyE2EE23_M_add_ref_lock_nothrowEv
_ZNSt16allocator_traitsISaISt4pairIlSt6vectorISt9sub_matchIN9__gnu_cxx17__normal_iteratorIPKcSsEEESaIS8_EEEEE10deallocateERSC_PSB_m
_ZNSt16allocator_traitsISaISt4pairIlSt6vectorISt9sub_matchIN9__gnu_cxx17__normal_iteratorIPKcSsEEESaIS8_EEEEE11_S_max_sizeIKSC_vEEmRT_i
_ZNSt16allocator_traitsISaISt4pairIlSt6vectorISt9sub_matchIN9__gnu_cxx17__normal_iteratorIPKcSsEEESaIS8_EEEEE12_S_constructISB_JSB_EEENSt9enable_ifIXsrSt6__and_IJNSD_18__construct_helperIT_JDpT0_EE4typeEEE5valueEvE4typeERSC_PSI_DpOSJ_
_ZNSt16allocator_traitsISaISt4pairIlSt6vectorISt9sub_matchIN9__gnu_cxx17__normal_iteratorIPKcSsEEESaIS8_EEEEE8allocateERSC_m
_ZNSt16allocator_traitsISaISt4pairIlSt6vectorISt9sub_matchIN9__gnu_cxx17__normal_iteratorIPKcSsEEESaIS8_EEEEE8max_sizeERKSC_
_ZNSt16allocator_traitsISaISt4pairIlSt6vectorISt9sub_matchIN9__gnu_cxx17__normal_iteratorIPKcSsEEESaIS8_EEEEE9constructISB_JSB_EEEDTcl12_S_constructfp_fp0_spcl7forwardIT0_Efp1_EEERSC_PT_DpOSF_
_ZNSt16allocator_traitsISaISt9sub_matchIN9__gnu_cxx17__normal_iteratorIPKcSsEEEEE10deallocateERS7_PS6_m
_ZNSt16allocator_traitsISaISt9sub_matchIN9__gnu_cxx17__normal_iteratorIPKcSsEEEEE11_S_max_sizeIKS7_vEEmRT_i
_ZNSt16allocator_traitsISaISt9sub_matchIN9__gnu_cxx17__normal_iteratorIPKcSsEEEEE37select_on_container_copy_constructionERKS7_
_ZNSt16allocator_traitsISaISt9sub_matchIN9__gnu_cxx17__normal_iteratorIPKcSsEEEEE8allocateERS7_m
_ZNSt16allocator_traitsISaISt9sub_matchIN9__gnu_cxx17__normal_iteratorIPKcSsEEEEE8max_sizeERKS7_
_ZNSt16allocator_traitsISaISt9sub_matchIN9__gnu_cxx17__normal_iteratorIPKcSsEEEEE9_S_selectIKS7_vEET_RSB_z
_ZNSt16reverse_iteratorIN9__gnu_cxx17__normal_iteratorIPcSsEEEC1ERKS4_
_ZNSt16reverse_iteratorIN9__gnu_cxx17__normal_iteratorIPcSsEEEC2ERKS4_
_ZNSt16reverse_iteratorIN9__gnu_cxx17__normal_iteratorIPcSsEEEppEv
_ZNSt20__uninitialized_copyILb0EE13__uninit_copyIN9__gnu_cxx17__normal_iteratorIPDsSt6vectorIDsSaIDsEEEES4_EET0_T_SA_S9_
_ZNSt20__uninitialized_copyILb0EE13__uninit_copyIN9__gnu_cxx17__normal_iteratorIPK12TeamRankItemSt6vectorIS4_SaIS4_EEEEPS4_EET0_T_SD_SC_
_ZNSt20__uninitialized_copyILb0EE13__uninit_copyIN9__gnu_cxx17__normal_iteratorIPKN7cocos2d5ValueESt6vectorIS5_SaIS5_EEEEPS5_EET0_T_SE_SD_
_ZNSt20__uninitialized_copyILb0EE13__uninit_copyIN9__gnu_cxx17__normal_iteratorIPKNSt12regex_traitsIcE10_RegexMaskESt6vectorIS6_SaIS6_EEEEPS6_EET0_T_SF_SE_
_ZNSt20__uninitialized_copyILb0EE13__uninit_copyIN9__gnu_cxx17__normal_iteratorIPKPN10cocostudio12ActionObjectESt6vectorIS6_SaIS6_EEEEPS6_EET0_T_SF_SE_
_ZNSt20__uninitialized_copyILb0EE13__uninit_copyIN9__gnu_cxx17__normal_iteratorIPKPN10cocostudio8timeline8TimelineESt6vectorIS7_SaIS7_EEEEPS7_EET0_T_SG_SF_
_ZNSt20__uninitialized_copyILb0EE13__uninit_copyIN9__gnu_cxx17__normal_iteratorIPKPN10cocostudio9FrameDataESt6vectorIS6_SaIS6_EEEEPS6_EET0_T_SF_SE_
_ZNSt20__uninitialized_copyILb0EE13__uninit_copyIN9__gnu_cxx17__normal_iteratorIPKPN7cocos2d11PhysicsBodyESt6vectorIS6_SaIS6_EEEEPS6_EET0_T_SF_SE_
_ZNSt20__uninitialized_copyILb0EE13__uninit_copyIN9__gnu_cxx17__normal_iteratorIPKPN7cocos2d11SpriteFrameESt6vectorIS6_SaIS6_EEEEPS6_EET0_T_SF_SE_
_ZNSt20__uninitialized_copyILb0EE13__uninit_copyIN9__gnu_cxx17__normal_iteratorIPKPN7cocos2d12PhysicsJointESt6vectorIS6_SaIS6_EEEEPS6_EET0_T_SF_SE_
_ZNSt20__uninitialized_copyILb0EE13__uninit_copyIN9__gnu_cxx17__normal_iteratorIPKPN7cocos2d13EventListenerESt6vectorIS6_SaIS6_EEEEPS6_EET0_T_SF_SE_
_ZNSt20__uninitialized_copyILb0EE13__uninit_copyIN9__gnu_cxx17__normal_iteratorIPKPN7cocos2d13RenderCommandESt6vectorIS6_SaIS6_EEEEPS6_EET0_T_SF_SE_
_ZNSt20__uninitialized_copyILb0EE13__uninit_copyIN9__gnu_cxx17__normal_iteratorIPKPN7cocos2d14AnimationFrameESt6vectorIS6_SaIS6_EEEEPS6_EET0_T_SF_SE_
_ZNSt20__uninitialized_copyILb0EE13__uninit_copyIN9__gnu_cxx17__normal_iteratorIPKPN7cocos2d14TMXObjectGroupESt6vectorIS6_SaIS6_EEEEPS6_EET0_T_SF_SE_
_ZNSt20__uninitialized_copyILb0EE13__uninit_copyIN9__gnu_cxx17__normal_iteratorIPKPN7cocos2d2ui6LayoutESt6vectorIS7_SaIS7_EEEEPS7_EET0_T_SG_SF_
_ZNSt20__uninitialized_copyILb0EE13__uninit_copyIN9__gnu_cxx17__normal_iteratorIPKPN7cocos2d4NodeESt6vectorIS6_SaIS6_EEEEPS6_EET0_T_SF_SE_
_ZNSt20__uninitialized_copyILb0EE13__uninit_copyIN9__gnu_cxx17__normal_iteratorIPKPN7cocos2d5TouchESt6vectorIS6_SaIS6_EEEEPS6_EET0_T_SF_SE_
_ZNSt20__uninitialized_copyILb0EE13__uninit_copyIN9__gnu_cxx17__normal_iteratorIPKSsSt6vectorISsSaISsEEEEPSsEET0_T_SC_SB_
_ZNSt20__uninitialized_copyILb0EE13__uninit_copyIN9__gnu_cxx17__normal_iteratorIPKSt4pairISsSsESt6vectorIS5_SaIS5_EEEEPS5_EET0_T_SE_SD_
_ZNSt20__uninitialized_copyILb0EE13__uninit_copyIN9__gnu_cxx17__normal_iteratorIPKSt4pairIccESt6vectorIS5_SaIS5_EEEEPS5_EET0_T_SE_SD_
_ZNSt20__uninitialized_copyILb0EE13__uninit_copyIN9__gnu_cxx17__normal_iteratorIPKSt6vectorIPN7cocos2d13RenderCommandESaIS7_EES4_IS9_SaIS9_EEEEPS9_EET0_T_SH_SG_
_ZNSt20__uninitialized_copyILb0EE13__uninit_copyIN9__gnu_cxx17__normal_iteratorIPKSt8functionIFvvEESt6vectorIS6_SaIS6_EEEEPS6_EET0_T_SF_SE_
_ZNSt20__uninitialized_copyILb0EE13__uninit_copyIN9__gnu_cxx17__normal_iteratorIPKSt9sub_matchINS3_IPKcSsEEESt6vectorIS8_SaIS8_EEEEPS8_EET0_T_SH_SG_
_ZNSt20__uninitialized_copyILb0EE13__uninit_copyIN9__gnu_cxx17__normal_iteratorIPKcSt6vectorIcSaIcEEEEPcEET0_T_SC_SB_
_ZNSt20__uninitialized_copyILb0EE13__uninit_copyIPN6CLevel11CLevelMusicES4_EET0_T_S6_S5_
_ZNSt20__uninitialized_copyILb0EE13__uninit_copyIPSt9sub_matchIN9__gnu_cxx17__normal_iteratorIPKcSsEEES9_EET0_T_SB_SA_
_ZNSt20__uninitialized_copyILb0EE13__uninit_copyISt13move_iteratorIPPN10cocostudio11DisplayDataEES6_EET0_T_S9_S8_
_ZNSt20__uninitialized_copyILb0EE13__uninit_copyISt13move_iteratorIPPN10cocostudio17DecorativeDisplayEES6_EET0_T_S9_S8_
_ZNSt20__uninitialized_copyILb0EE13__uninit_copyISt13move_iteratorIPPN7cocos2d14TMXTilesetInfoEES6_EET0_T_S9_S8_
_ZNSt20__uninitialized_copyILb0EE13__uninit_copyISt13move_iteratorIPSt4pairIlSt6vectorISt9sub_matchIN9__gnu_cxx17__normal_iteratorIPKcSsEEESaISB_EEEESF_EET0_T_SI_SH_
_ZNSt20__uninitialized_copyILb0EE13__uninit_copyISt13move_iteratorIPSt9sub_matchIN9__gnu_cxx17__normal_iteratorIPKcSsEEEESA_EET0_T_SD_SC_
_ZNSt23_Sp_counted_ptr_inplaceINSt6thread5_ImplISt12_Bind_simpleIFPFvP10KMixReportP24whitetile2_mixerror_dataES4_S6_EEEESaISB_ELN9__gnu_cxx12_Lock_policyE2EE10_M_destroyEv
_ZNSt23_Sp_counted_ptr_inplaceINSt6thread5_ImplISt12_Bind_simpleIFPFvP10KMixReportP24whitetile2_mixerror_dataES4_S6_EEEESaISB_ELN9__gnu_cxx12_Lock_policyE2EE10_M_disposeEv
_ZNSt23_Sp_counted_ptr_inplaceINSt6thread5_ImplISt12_Bind_simpleIFPFvP10KMixReportP24whitetile2_mixerror_dataES4_S6_EEEESaISB_ELN9__gnu_cxx12_Lock_policyE2EE14_M_get_deleterERKSt9type_info
_ZNSt23_Sp_counted_ptr_inplaceINSt6thread5_ImplISt12_Bind_simpleIFPFvP10KMixReportP24whitetile2_mixerror_dataES4_S6_EEEESaISB_ELN9__gnu_cxx12_Lock_policyE2EED0Ev
_ZNSt23_Sp_counted_ptr_inplaceINSt6thread5_ImplISt12_Bind_simpleIFPFvP10KMixReportP24whitetile2_mixerror_dataES4_S6_EEEESaISB_ELN9__gnu_cxx12_Lock_policyE2EED1Ev
_ZNSt23_Sp_counted_ptr_inplaceINSt6thread5_ImplISt12_Bind_simpleIFPFvP10KMixReportP24whitetile2_mixerror_dataES4_S6_EEEESaISB_ELN9__gnu_cxx12_Lock_policyE2EED2Ev
_ZNSt23_Sp_counted_ptr_inplaceINSt6thread5_ImplISt12_Bind_simpleIFPFvP19CMusicLoaderManagerES4_EEEESaIS9_ELN9__gnu_cxx12_Lock_policyE2EE10_M_destroyEv
_ZNSt23_Sp_counted_ptr_inplaceINSt6thread5_ImplISt12_Bind_simpleIFPFvP19CMusicLoaderManagerES4_EEEESaIS9_ELN9__gnu_cxx12_Lock_policyE2EE10_M_disposeEv
_ZNSt23_Sp_counted_ptr_inplaceINSt6thread5_ImplISt12_Bind_simpleIFPFvP19CMusicLoaderManagerES4_EEEESaIS9_ELN9__gnu_cxx12_Lock_policyE2EE14_M_get_deleterERKSt9type_info
_ZNSt23_Sp_counted_ptr_inplaceINSt6thread5_ImplISt12_Bind_simpleIFPFvP19CMusicLoaderManagerES4_EEEESaIS9_ELN9__gnu_cxx12_Lock_policyE2EED0Ev
_ZNSt23_Sp_counted_ptr_inplaceINSt6thread5_ImplISt12_Bind_simpleIFPFvP19CMusicLoaderManagerES4_EEEESaIS9_ELN9__gnu_cxx12_Lock_policyE2EED1Ev
_ZNSt23_Sp_counted_ptr_inplaceINSt6thread5_ImplISt12_Bind_simpleIFPFvP19CMusicLoaderManagerES4_EEEESaIS9_ELN9__gnu_cxx12_Lock_policyE2EED2Ev
_ZNSt23_Sp_counted_ptr_inplaceINSt6thread5_ImplISt12_Bind_simpleIFSt7_Mem_fnIM12PlayerThreadFvvEEPS4_EEEESaISB_ELN9__gnu_cxx12_Lock_policyE2EE10_M_destroyEv
_ZNSt23_Sp_counted_ptr_inplaceINSt6thread5_ImplISt12_Bind_simpleIFSt7_Mem_fnIM12PlayerThreadFvvEEPS4_EEEESaISB_ELN9__gnu_cxx12_Lock_policyE2EE10_M_disposeEv
_ZNSt23_Sp_counted_ptr_inplaceINSt6thread5_ImplISt12_Bind_simpleIFSt7_Mem_fnIM12PlayerThreadFvvEEPS4_EEEESaISB_ELN9__gnu_cxx12_Lock_policyE2EE14_M_get_deleterERKSt9type_info
_ZNSt23_Sp_counted_ptr_inplaceINSt6thread5_ImplISt12_Bind_simpleIFSt7_Mem_fnIM12PlayerThreadFvvEEPS4_EEEESaISB_ELN9__gnu_cxx12_Lock_policyE2EED0Ev
_ZNSt23_Sp_counted_ptr_inplaceINSt6thread5_ImplISt12_Bind_simpleIFSt7_Mem_fnIM12PlayerThreadFvvEEPS4_EEEESaISB_ELN9__gnu_cxx12_Lock_policyE2EED1Ev
_ZNSt23_Sp_counted_ptr_inplaceINSt6thread5_ImplISt12_Bind_simpleIFSt7_Mem_fnIM12PlayerThreadFvvEEPS4_EEEESaISB_ELN9__gnu_cxx12_Lock_policyE2EED2Ev
_ZNSt23_Sp_counted_ptr_inplaceINSt6thread5_ImplISt12_Bind_simpleIFSt7_Mem_fnIM5PianoFbvEEPS4_EEEESaISB_ELN9__gnu_cxx12_Lock_policyE2EE10_M_destroyEv
_ZNSt23_Sp_counted_ptr_inplaceINSt6thread5_ImplISt12_Bind_simpleIFSt7_Mem_fnIM5PianoFbvEEPS4_EEEESaISB_ELN9__gnu_cxx12_Lock_policyE2EE10_M_disposeEv
_ZNSt23_Sp_counted_ptr_inplaceINSt6thread5_ImplISt12_Bind_simpleIFSt7_Mem_fnIM5PianoFbvEEPS4_EEEESaISB_ELN9__gnu_cxx12_Lock_policyE2EE14_M_get_deleterERKSt9type_info
_ZNSt23_Sp_counted_ptr_inplaceINSt6thread5_ImplISt12_Bind_simpleIFSt7_Mem_fnIM5PianoFbvEEPS4_EEEESaISB_ELN9__gnu_cxx12_Lock_policyE2EED0Ev
_ZNSt23_Sp_counted_ptr_inplaceINSt6thread5_ImplISt12_Bind_simpleIFSt7_Mem_fnIM5PianoFbvEEPS4_EEEESaISB_ELN9__gnu_cxx12_Lock_policyE2EED1Ev
_ZNSt23_Sp_counted_ptr_inplaceINSt6thread5_ImplISt12_Bind_simpleIFSt7_Mem_fnIM5PianoFbvEEPS4_EEEESaISB_ELN9__gnu_cxx12_Lock_policyE2EED2Ev
_ZNSt27__uninitialized_default_n_1ILb0EE18__uninit_default_nIPSt9sub_matchIN9__gnu_cxx17__normal_iteratorIPKcSsEEEmEEvT_T0_
_ZNSt4pairIN9__gnu_cxx17__normal_iteratorIPKcSsEES4_EC1Ev
_ZNSt4pairIN9__gnu_cxx17__normal_iteratorIPKcSsEES4_EC2Ev
_ZNSt4pairIN9__gnu_cxx17__normal_iteratorIPKcSsEES4_EaSERKS5_
_ZNSt4pairIlSt6vectorISt9sub_matchIN9__gnu_cxx17__normal_iteratorIPKcSsEEESaIS7_EEEC1EOSA_
_ZNSt4pairIlSt6vectorISt9sub_matchIN9__gnu_cxx17__normal_iteratorIPKcSsEEESaIS7_EEEC1IRS9_vEERKlOT_
_ZNSt4pairIlSt6vectorISt9sub_matchIN9__gnu_cxx17__normal_iteratorIPKcSsEEESaIS7_EEEC1IRlRS9_vEEOT_OT0_
_ZNSt4pairIlSt6vectorISt9sub_matchIN9__gnu_cxx17__normal_iteratorIPKcSsEEESaIS7_EEEC2EOSA_
_ZNSt4pairIlSt6vectorISt9sub_matchIN9__gnu_cxx17__normal_iteratorIPKcSsEEESaIS7_EEEC2IRS9_vEERKlOT_
_ZNSt4pairIlSt6vectorISt9sub_matchIN9__gnu_cxx17__normal_iteratorIPKcSsEEESaIS7_EEEC2IRlRS9_vEEOT_OT0_
_ZNSt4pairIlSt6vectorISt9sub_matchIN9__gnu_cxx17__normal_iteratorIPKcSsEEESaIS7_EEED1Ev
_ZNSt4pairIlSt6vectorISt9sub_matchIN9__gnu_cxx17__normal_iteratorIPKcSsEEESaIS7_EEED2Ev
_ZNSt5tupleIJPNSt8__detail9_ExecutorIN9__gnu_cxx17__normal_iteratorIPKcSsEESaISt9sub_matchIS6_EESt12regex_traitsIcELb0EEESt14default_deleteISC_EEEC1IRSD_SF_vEEOT_OT0_
_ZNSt5tupleIJPNSt8__detail9_ExecutorIN9__gnu_cxx17__normal_iteratorIPKcSsEESaISt9sub_matchIS6_EESt12regex_traitsIcELb0EEESt14default_deleteISC_EEEC2IRSD_SF_vEEOT_OT0_
_ZNSt5tupleIJPNSt8__detail9_ExecutorIN9__gnu_cxx17__normal_iteratorIPKcSsEESaISt9sub_matchIS6_EESt12regex_traitsIcELb1EEESt14default_deleteISC_EEEC1IRSD_SF_vEEOT_OT0_
_ZNSt5tupleIJPNSt8__detail9_ExecutorIN9__gnu_cxx17__normal_iteratorIPKcSsEESaISt9sub_matchIS6_EESt12regex_traitsIcELb1EEESt14default_deleteISC_EEEC2IRSD_SF_vEEOT_OT0_
_ZNSt5tupleIJPSt6vectorISt4pairIlS0_ISt9sub_matchIN9__gnu_cxx17__normal_iteratorIPKcSsEEESaIS8_EEESaISB_EESt14default_deleteISD_EEEC1IRSE_SG_vEEOT_OT0_
_ZNSt5tupleIJPSt6vectorISt4pairIlS0_ISt9sub_matchIN9__gnu_cxx17__normal_iteratorIPKcSsEEESaIS8_EEESaISB_EESt14default_deleteISD_EEEC2IRSE_SG_vEEOT_OT0_
_ZNSt6thread5_ImplISt12_Bind_simpleIFPFvP10KMixReportP24whitetile2_mixerror_dataES3_S5_EEE6_M_runEv
_ZNSt6thread5_ImplISt12_Bind_simpleIFPFvP10KMixReportP24whitetile2_mixerror_dataES3_S5_EEED0Ev
_ZNSt6thread5_ImplISt12_Bind_simpleIFPFvP10KMixReportP24whitetile2_mixerror_dataES3_S5_EEED1Ev
_ZNSt6thread5_ImplISt12_Bind_simpleIFPFvP10KMixReportP24whitetile2_mixerror_dataES3_S5_EEED2Ev
_ZNSt6thread5_ImplISt12_Bind_simpleIFPFvP19CMusicLoaderManagerES3_EEE6_M_runEv
_ZNSt6thread5_ImplISt12_Bind_simpleIFPFvP19CMusicLoaderManagerES3_EEED0Ev
_ZNSt6thread5_ImplISt12_Bind_simpleIFPFvP19CMusicLoaderManagerES3_EEED1Ev
_ZNSt6thread5_ImplISt12_Bind_simpleIFPFvP19CMusicLoaderManagerES3_EEED2Ev
_ZNSt6thread5_ImplISt12_Bind_simpleIFSt7_Mem_fnIM12PlayerThreadFvvEEPS3_EEE6_M_runEv
_ZNSt6thread5_ImplISt12_Bind_simpleIFSt7_Mem_fnIM12PlayerThreadFvvEEPS3_EEED0Ev
_ZNSt6thread5_ImplISt12_Bind_simpleIFSt7_Mem_fnIM12PlayerThreadFvvEEPS3_EEED1Ev
_ZNSt6thread5_ImplISt12_Bind_simpleIFSt7_Mem_fnIM12PlayerThreadFvvEEPS3_EEED2Ev
_ZNSt6thread5_ImplISt12_Bind_simpleIFSt7_Mem_fnIM5PianoFbvEEPS3_EEE6_M_runEv
_ZNSt6thread5_ImplISt12_Bind_simpleIFSt7_Mem_fnIM5PianoFbvEEPS3_EEED0Ev
_ZNSt6thread5_ImplISt12_Bind_simpleIFSt7_Mem_fnIM5PianoFbvEEPS3_EEED1Ev
_ZNSt6thread5_ImplISt12_Bind_simpleIFSt7_Mem_fnIM5PianoFbvEEPS3_EEED2Ev
_ZNSt6vectorI8PropTypeSaIS0_EE8_M_eraseEN9__gnu_cxx17__normal_iteratorIPS0_S2_EE
_ZNSt6vectorIDsSaIDsEE15_M_range_insertIN9__gnu_cxx17__normal_iteratorIPDsS1_EEEEvS6_T_S7_St20forward_iterator_tag
_ZNSt6vectorIDsSaIDsEE18_M_insert_dispatchIN9__gnu_cxx17__normal_iteratorIPDsS1_EEEEvS6_T_S7_St12__false_type
_ZNSt6vectorIDsSaIDsEE5eraseEN9__gnu_cxx17__normal_iteratorIPKDsS1_EES6_
_ZNSt6vectorIDsSaIDsEE6insertIN9__gnu_cxx17__normal_iteratorIPDsS1_EEvEES6_NS4_IPKDsS1_EET_SA_
_ZNSt6vectorIDsSaIDsEE8_M_eraseEN9__gnu_cxx17__normal_iteratorIPDsS1_EES5_
_ZNSt6vectorIS_IiSaIiEESaIS1_EE13_M_insert_auxIJRKS1_EEEvN9__gnu_cxx17__normal_iteratorIPS1_S3_EEDpOT_
_ZNSt6vectorIS_IiSaIiEESaIS1_EE13_M_insert_auxIJS1_EEEvN9__gnu_cxx17__normal_iteratorIPS1_S3_EEDpOT_
_ZNSt6vectorIS_IiSaIiEESaIS1_EE6insertEN9__gnu_cxx17__normal_iteratorIPKS1_S3_EERS6_
_ZNSt6vectorIS_IiSaIiEESaIS1_EE8_M_eraseEN9__gnu_cxx17__normal_iteratorIPS1_S3_EE
_ZNSt6vectorISsSaISsEE13_M_insert_auxIJRKSsEEEvN9__gnu_cxx17__normal_iteratorIPSsS1_EEDpOT_
_ZNSt6vectorISsSaISsEE13_M_insert_auxIJSsEEEvN9__gnu_cxx17__normal_iteratorIPSsS1_EEDpOT_
_ZNSt6vectorISsSaISsEE20_M_allocate_and_copyIN9__gnu_cxx17__normal_iteratorIPKSsS1_EEEEPSsmT_S9_
_ZNSt6vectorISsSaISsEE5eraseEN9__gnu_cxx17__normal_iteratorIPKSsS1_EE
_ZNSt6vectorISsSaISsEE6insertEN9__gnu_cxx17__normal_iteratorIPKSsS1_EERS4_
_ZNSt6vectorISsSaISsEE8_M_eraseEN9__gnu_cxx17__normal_iteratorIPSsS1_EE
_ZNSt6vectorISt4pairIlS_ISt9sub_matchIN9__gnu_cxx17__normal_iteratorIPKcSsEEESaIS7_EEESaISA_EE12emplace_backIJSA_EEEvDpOT_
_ZNSt6vectorISt4pairIlS_ISt9sub_matchIN9__gnu_cxx17__normal_iteratorIPKcSsEEESaIS7_EEESaISA_EE19_M_emplace_back_auxIJSA_EEEvDpOT_
_ZNSt6vectorISt4pairIlS_ISt9sub_matchIN9__gnu_cxx17__normal_iteratorIPKcSsEEESaIS7_EEESaISA_EE3endEv
_ZNSt6vectorISt4pairIlS_ISt9sub_matchIN9__gnu_cxx17__normal_iteratorIPKcSsEEESaIS7_EEESaISA_EE5beginEv
_ZNSt6vectorISt4pairIlS_ISt9sub_matchIN9__gnu_cxx17__normal_iteratorIPKcSsEEESaIS7_EEESaISA_EE9push_backEOSA_
_ZNSt6vectorISt4pairIlS_ISt9sub_matchIN9__gnu_cxx17__normal_iteratorIPKcSsEEESaIS7_EEESaISA_EEC1EOSC_
_ZNSt6vectorISt4pairIlS_ISt9sub_matchIN9__gnu_cxx17__normal_iteratorIPKcSsEEESaIS7_EEESaISA_EEC1Ev
_ZNSt6vectorISt4pairIlS_ISt9sub_matchIN9__gnu_cxx17__normal_iteratorIPKcSsEEESaIS7_EEESaISA_EEC2EOSC_
_ZNSt6vectorISt4pairIlS_ISt9sub_matchIN9__gnu_cxx17__normal_iteratorIPKcSsEEESaIS7_EEESaISA_EEC2Ev
_ZNSt6vectorISt4pairIlS_ISt9sub_matchIN9__gnu_cxx17__normal_iteratorIPKcSsEEESaIS7_EEESaISA_EED1Ev
_ZNSt6vectorISt4pairIlS_ISt9sub_matchIN9__gnu_cxx17__normal_iteratorIPKcSsEEESaIS7_EEESaISA_EED2Ev
_ZNSt6vectorISt9sub_matchIN9__gnu_cxx17__normal_iteratorIPKcSsEEESaIS6_EE14_M_move_assignEOS8_St17integral_constantIbLb1EE
_ZNSt6vectorISt9sub_matchIN9__gnu_cxx17__normal_iteratorIPKcSsEEESaIS6_EE15_M_erase_at_endEPS6_
_ZNSt6vectorISt9sub_matchIN9__gnu_cxx17__normal_iteratorIPKcSsEEESaIS6_EE17_M_default_appendEm
_ZNSt6vectorISt9sub_matchIN9__gnu_cxx17__normal_iteratorIPKcSsEEESaIS6_EE20_M_allocate_and_copyINS2_IPKS6_S8_EEEEPS6_mT_SE_
_ZNSt6vectorISt9sub_matchIN9__gnu_cxx17__normal_iteratorIPKcSsEEESaIS6_EE21_M_default_initializeEm
_ZNSt6vectorISt9sub_matchIN9__gnu_cxx17__normal_iteratorIPKcSsEEESaIS6_EE3endEv
_ZNSt6vectorISt9sub_matchIN9__gnu_cxx17__normal_iteratorIPKcSsEEESaIS6_EE5beginEv
_ZNSt6vectorISt9sub_matchIN9__gnu_cxx17__normal_iteratorIPKcSsEEESaIS6_EE5clearEv
_ZNSt6vectorISt9sub_matchIN9__gnu_cxx17__normal_iteratorIPKcSsEEESaIS6_EE6resizeEm
_ZNSt6vectorISt9sub_matchIN9__gnu_cxx17__normal_iteratorIPKcSsEEESaIS6_EEC1EOS8_
_ZNSt6vectorISt9sub_matchIN9__gnu_cxx17__normal_iteratorIPKcSsEEESaIS6_EEC1ERKS7_
_ZNSt6vectorISt9sub_matchIN9__gnu_cxx17__normal_iteratorIPKcSsEEESaIS6_EEC1ERKS8_
_ZNSt6vectorISt9sub_matchIN9__gnu_cxx17__normal_iteratorIPKcSsEEESaIS6_EEC1EmRKS7_
_ZNSt6vectorISt9sub_matchIN9__gnu_cxx17__normal_iteratorIPKcSsEEESaIS6_EEC1Ev
_ZNSt6vectorISt9sub_matchIN9__gnu_cxx17__normal_iteratorIPKcSsEEESaIS6_EEC2EOS8_
_ZNSt6vectorISt9sub_matchIN9__gnu_cxx17__normal_iteratorIPKcSsEEESaIS6_EEC2ERKS7_
_ZNSt6vectorISt9sub_matchIN9__gnu_cxx17__normal_iteratorIPKcSsEEESaIS6_EEC2ERKS8_
_ZNSt6vectorISt9sub_matchIN9__gnu_cxx17__normal_iteratorIPKcSsEEESaIS6_EEC2EmRKS7_
_ZNSt6vectorISt9sub_matchIN9__gnu_cxx17__normal_iteratorIPKcSsEEESaIS6_EEC2Ev
_ZNSt6vectorISt9sub_matchIN9__gnu_cxx17__normal_iteratorIPKcSsEEESaIS6_EED1Ev
_ZNSt6vectorISt9sub_matchIN9__gnu_cxx17__normal_iteratorIPKcSsEEESaIS6_EED2Ev
_ZNSt6vectorISt9sub_matchIN9__gnu_cxx17__normal_iteratorIPKcSsEEESaIS6_EEaSEOS8_
_ZNSt6vectorISt9sub_matchIN9__gnu_cxx17__normal_iteratorIPKcSsEEESaIS6_EEaSERKS8_
_ZNSt6vectorISt9sub_matchIN9__gnu_cxx17__normal_iteratorIPKcSsEEESaIS6_EEixEm
_ZNSt6vectorIcSaIcEE15_M_range_insertIPcEEvN9__gnu_cxx17__normal_iteratorIS3_S1_EET_S7_St20forward_iterator_tag
_ZNSt6vectorIcSaIcEE18_M_insert_dispatchIPcEEvN9__gnu_cxx17__normal_iteratorIS3_S1_EET_S7_St12__false_type
_ZNSt6vectorIcSaIcEE6insertIPcvEEN9__gnu_cxx17__normal_iteratorIS3_S1_EENS5_IPKcS1_EET_SA_
_ZNSt6vectorIfSaIfEE14_M_fill_insertEN9__gnu_cxx17__normal_iteratorIPfS1_EEmRKf
_ZNSt6vectorIfSaIfEE6insertEN9__gnu_cxx17__normal_iteratorIPKfS1_EEmRS4_
_ZNSt6vectorIiSaIiEE13_M_insert_auxIJRKiEEEvN9__gnu_cxx17__normal_iteratorIPiS1_EEDpOT_
_ZNSt6vectorIiSaIiEE13_M_insert_auxIJiEEEvN9__gnu_cxx17__normal_iteratorIPiS1_EEDpOT_
_ZNSt6vectorIiSaIiEE5eraseEN9__gnu_cxx17__normal_iteratorIPKiS1_EES6_
_ZNSt6vectorIiSaIiEE7emplaceIJiEEEN9__gnu_cxx17__normal_iteratorIPiS1_EENS4_IPKiS1_EEDpOT_
_ZNSt6vectorIiSaIiEE8_M_eraseEN9__gnu_cxx17__normal_iteratorIPiS1_EE
_ZNSt6vectorIiSaIiEE8_M_eraseEN9__gnu_cxx17__normal_iteratorIPiS1_EES5_
_ZNSt6vectorIlSaIlEE13_M_insert_auxIJRKlEEEvN9__gnu_cxx17__normal_iteratorIPlS1_EEDpOT_
_ZNSt6vectorIlSaIlEE13_M_insert_auxIJlEEEvN9__gnu_cxx17__normal_iteratorIPlS1_EEDpOT_
_ZNSt6vectorIlSaIlEE6insertEN9__gnu_cxx17__normal_iteratorIPKlS1_EERS4_
_ZNSt6vectorItSaItEE14_M_fill_insertEN9__gnu_cxx17__normal_iteratorIPtS1_EEmRKt
_ZNSt6vectorItSaItEE15_M_range_insertIPKtEEvN9__gnu_cxx17__normal_iteratorIPtS1_EET_S9_St20forward_iterator_tag
_ZNSt6vectorItSaItEE18_M_insert_dispatchIPKtEEvN9__gnu_cxx17__normal_iteratorIPtS1_EET_S9_St12__false_type
_ZNSt6vectorItSaItEE6insertEN9__gnu_cxx17__normal_iteratorIPKtS1_EEmRS4_
_ZNSt6vectorItSaItEE6insertIPKtvEEN9__gnu_cxx17__normal_iteratorIPtS1_EENS6_IS4_S1_EET_SA_
_ZNSt8_Rb_treeI14BattlePalyTypeSt4pairIKS0_iESt10_Select1stIS3_ESt4lessIS0_ESaIS3_EE24_M_get_insert_unique_posERS2_
_ZNSt8_Rb_treeI14BattlePalyTypeSt4pairIKS0_iESt10_Select1stIS3_ESt4lessIS0_ESaIS3_EE29_M_get_insert_hint_unique_posESt23_Rb_tree_const_iteratorIS3_ERS2_
_ZNSt8_Rb_treeI14BattlePalyTypeSt4pairIKS0_iESt10_Select1stIS3_ESt4lessIS0_ESaIS3_EE8_M_eraseEPSt13_Rb_tree_nodeIS3_E
_ZNSt8__detail17__regex_algo_implIN9__gnu_cxx17__normal_iteratorIPKcSsEESaISt9sub_matchIS5_EEcSt12regex_traitsIcELNS_20_RegexExecutorPolicyE0ELb1EEEbT_SC_RSt13match_resultsISC_T0_ERKSt11basic_regexIT1_T2_ENSt15regex_constants15match_flag_typeE
_ZNSt8__detail8_ScannerIcE14_M_scan_normalEv
_ZNSt8__detail9_ExecutorIN9__gnu_cxx17__normal_iteratorIPKcSsEESaISt9sub_matchIS5_EESt12regex_traitsIcELb0EE12_M_lookaheadENS_6_StateISA_EE
_ZNSt8__detail9_ExecutorIN9__gnu_cxx17__normal_iteratorIPKcSsEESaISt9sub_matchIS5_EESt12regex_traitsIcELb0EE20_M_search_from_firstEv
_ZNSt8__detail9_ExecutorIN9__gnu_cxx17__normal_iteratorIPKcSsEESaISt9sub_matchIS5_EESt12regex_traitsIcELb0EE6_M_dfsILb0EEEvl
_ZNSt8__detail9_ExecutorIN9__gnu_cxx17__normal_iteratorIPKcSsEESaISt9sub_matchIS5_EESt12regex_traitsIcELb0EE6_M_dfsILb1EEEvl
_ZNSt8__detail9_ExecutorIN9__gnu_cxx17__normal_iteratorIPKcSsEESaISt9sub_matchIS5_EESt12regex_traitsIcELb0EE7_M_mainILb0EEEbv
_ZNSt8__detail9_ExecutorIN9__gnu_cxx17__normal_iteratorIPKcSsEESaISt9sub_matchIS5_EESt12regex_traitsIcELb0EE7_M_mainILb1EEEbv
_ZNSt8__detail9_ExecutorIN9__gnu_cxx17__normal_iteratorIPKcSsEESaISt9sub_matchIS5_EESt12regex_traitsIcELb0EE8_M_matchEv
_ZNSt8__detail9_ExecutorIN9__gnu_cxx17__normal_iteratorIPKcSsEESaISt9sub_matchIS5_EESt12regex_traitsIcELb0EEC1ES5_S5_RSt6vectorIS7_S8_ERKSt11basic_regexIcSA_ENSt15regex_constants15match_flag_typeE
_ZNSt8__detail9_ExecutorIN9__gnu_cxx17__normal_iteratorIPKcSsEESaISt9sub_matchIS5_EESt12regex_traitsIcELb0EEC2ES5_S5_RSt6vectorIS7_S8_ERKSt11basic_regexIcSA_ENSt15regex_constants15match_flag_typeE
_ZNSt8__detail9_ExecutorIN9__gnu_cxx17__normal_iteratorIPKcSsEESaISt9sub_matchIS5_EESt12regex_traitsIcELb0EED1Ev
_ZNSt8__detail9_ExecutorIN9__gnu_cxx17__normal_iteratorIPKcSsEESaISt9sub_matchIS5_EESt12regex_traitsIcELb0EED2Ev
_ZNSt8__detail9_ExecutorIN9__gnu_cxx17__normal_iteratorIPKcSsEESaISt9sub_matchIS5_EESt12regex_traitsIcELb1EE12_M_lookaheadENS_6_StateISA_EE
_ZNSt8__detail9_ExecutorIN9__gnu_cxx17__normal_iteratorIPKcSsEESaISt9sub_matchIS5_EESt12regex_traitsIcELb1EE20_M_search_from_firstEv
_ZNSt8__detail9_ExecutorIN9__gnu_cxx17__normal_iteratorIPKcSsEESaISt9sub_matchIS5_EESt12regex_traitsIcELb1EE6_M_dfsILb0EEEvl
_ZNSt8__detail9_ExecutorIN9__gnu_cxx17__normal_iteratorIPKcSsEESaISt9sub_matchIS5_EESt12regex_traitsIcELb1EE6_M_dfsILb1EEEvl
_ZNSt8__detail9_ExecutorIN9__gnu_cxx17__normal_iteratorIPKcSsEESaISt9sub_matchIS5_EESt12regex_traitsIcELb1EE7_M_mainILb0EEEbv
_ZNSt8__detail9_ExecutorIN9__gnu_cxx17__normal_iteratorIPKcSsEESaISt9sub_matchIS5_EESt12regex_traitsIcELb1EE7_M_mainILb1EEEbv
_ZNSt8__detail9_ExecutorIN9__gnu_cxx17__normal_iteratorIPKcSsEESaISt9sub_matchIS5_EESt12regex_traitsIcELb1EE8_M_matchEv
_ZNSt8__detail9_ExecutorIN9__gnu_cxx17__normal_iteratorIPKcSsEESaISt9sub_matchIS5_EESt12regex_traitsIcELb1EEC1ES5_S5_RSt6vectorIS7_S8_ERKSt11basic_regexIcSA_ENSt15regex_constants15match_flag_typeE
_ZNSt8__detail9_ExecutorIN9__gnu_cxx17__normal_iteratorIPKcSsEESaISt9sub_matchIS5_EESt12regex_traitsIcELb1EEC2ES5_S5_RSt6vectorIS7_S8_ERKSt11basic_regexIcSA_ENSt15regex_constants15match_flag_typeE
_ZNSt8__detail9_ExecutorIN9__gnu_cxx17__normal_iteratorIPKcSsEESaISt9sub_matchIS5_EESt12regex_traitsIcELb1EED1Ev
_ZNSt8__detail9_ExecutorIN9__gnu_cxx17__normal_iteratorIPKcSsEESaISt9sub_matchIS5_EESt12regex_traitsIcELb1EED2Ev
_ZNSt8functionIFvN9CAdPlugin12eVideoResultEiiEEC1ISt5_BindIFSt7_Mem_fnIM11UIStoreItemFvS1_iiEEPS7_St12_PlaceholderILi1EESC_ILi2EESC_ILi3EEEEvEET_
_ZNSt8functionIFvN9CAdPlugin12eVideoResultEiiEEC1ISt5_BindIFSt7_Mem_fnIM13BannerManagerFvS1_iiEEPS7_St12_PlaceholderILi1EESC_ILi2EESC_ILi3EEEEvEET_
_ZNSt8functionIFvN9CAdPlugin12eVideoResultEiiEEC1ISt5_BindIFSt7_Mem_fnIM21UIDialogSelectionOpenFvS1_iiEEPS7_St12_PlaceholderILi1EESC_ILi2EESC_ILi3EEEEvEET_
_ZNSt8functionIFvN9CAdPlugin12eVideoResultEiiEEC1ISt5_BindIFSt7_Mem_fnIM8UIReliveFvS1_iiEEPS7_St12_PlaceholderILi1EESC_ILi2EESC_ILi3EEEEvEET_
_ZNSt8functionIFvN9CAdPlugin12eVideoResultEiiEEC1ISt5_BindIFSt7_Mem_fnIM8UIResultFvS1_iiEEPS7_St12_PlaceholderILi1EESC_ILi2EESC_ILi3EEEEvEET_
_ZNSt8functionIFvN9CAdPlugin12eVideoResultEiiEEC2ISt5_BindIFSt7_Mem_fnIM11UIStoreItemFvS1_iiEEPS7_St12_PlaceholderILi1EESC_ILi2EESC_ILi3EEEEvEET_
_ZNSt8functionIFvN9CAdPlugin12eVideoResultEiiEEC2ISt5_BindIFSt7_Mem_fnIM13BannerManagerFvS1_iiEEPS7_St12_PlaceholderILi1EESC_ILi2EESC_ILi3EEEEvEET_
_ZNSt8functionIFvN9CAdPlugin12eVideoResultEiiEEC2ISt5_BindIFSt7_Mem_fnIM21UIDialogSelectionOpenFvS1_iiEEPS7_St12_PlaceholderILi1EESC_ILi2EESC_ILi3EEEEvEET_
_ZNSt8functionIFvN9CAdPlugin12eVideoResultEiiEEC2ISt5_BindIFSt7_Mem_fnIM8UIReliveFvS1_iiEEPS7_St12_PlaceholderILi1EESC_ILi2EESC_ILi3EEEEvEET_
_ZNSt8functionIFvN9CAdPlugin12eVideoResultEiiEEC2ISt5_BindIFSt7_Mem_fnIM8UIResultFvS1_iiEEPS7_St12_PlaceholderILi1EESC_ILi2EESC_ILi3EEEEvEET_
_ZNSt8functionIFvRKN8CGameRes8ResStateEEEC1ERKS5_
_ZNSt8functionIFvRKN8CGameRes8ResStateEEEC2ERKS5_
_ZNSt8functionIFvRKSsEEC1ISt5_BindIFSt7_Mem_fnIMN7cocos2d2ui4TextEFvS1_EEPS9_St12_PlaceholderILi1EEEEvEET_
_ZNSt8functionIFvRKSsEEC1ISt5_BindIFSt7_Mem_fnIMN7cocos2d2ui6ButtonEFvS1_EEPS9_St12_PlaceholderILi1EEEEvEET_
_ZNSt8functionIFvRKSsEEC2ISt5_BindIFSt7_Mem_fnIMN7cocos2d2ui4TextEFvS1_EEPS9_St12_PlaceholderILi1EEEEvEET_
_ZNSt8functionIFvRKSsEEC2ISt5_BindIFSt7_Mem_fnIMN7cocos2d2ui6ButtonEFvS1_EEPS9_St12_PlaceholderILi1EEEEvEET_
_ZNSt8functionIFviRKSsEEC1ISt5_BindIFSt7_Mem_fnIMN7cocos2d15EventDispatcherEFviS1_EEPS8_St12_PlaceholderILi1EESD_ILi2EEEEvEET_
_ZNSt8functionIFviRKSsEEC1ISt5_BindIFSt7_Mem_fnIMN7cocos2d7ConsoleEFviEEPS8_St12_PlaceholderILi1EEEEvEET_
_ZNSt8functionIFviRKSsEEC1ISt5_BindIFSt7_Mem_fnIMN7cocos2d7ConsoleEFviS1_EEPS8_St12_PlaceholderILi1EESD_ILi2EEEEvEET_
_ZNSt8functionIFviRKSsEEC2ISt5_BindIFSt7_Mem_fnIMN7cocos2d15EventDispatcherEFviS1_EEPS8_St12_PlaceholderILi1EESD_ILi2EEEEvEET_
_ZNSt8functionIFviRKSsEEC2ISt5_BindIFSt7_Mem_fnIMN7cocos2d7ConsoleEFviEEPS8_St12_PlaceholderILi1EEEEvEET_
_ZNSt8functionIFviRKSsEEC2ISt5_BindIFSt7_Mem_fnIMN7cocos2d7ConsoleEFviS1_EEPS8_St12_PlaceholderILi1EESD_ILi2EEEEvEET_
_ZNSt8functionIFvvEEC1ISt5_BindIFSt7_Mem_fnIM5PianoFvvEEPS5_EEvEET_
_ZNSt8functionIFvvEEC1ISt5_BindIFSt7_Mem_fnIMN7cocos2d15TransitionSceneEFvvEEPNS5_15TransitionFlipXEEEvEET_
_ZNSt8functionIFvvEEC1ISt5_BindIFSt7_Mem_fnIMN7cocos2d15TransitionSceneEFvvEEPNS5_15TransitionFlipYEEEvEET_
_ZNSt8functionIFvvEEC1ISt5_BindIFSt7_Mem_fnIMN7cocos2d15TransitionSceneEFvvEEPNS5_19TransitionZoomFlipXEEEvEET_
_ZNSt8functionIFvvEEC1ISt5_BindIFSt7_Mem_fnIMN7cocos2d15TransitionSceneEFvvEEPNS5_19TransitionZoomFlipYEEEvEET_
_ZNSt8functionIFvvEEC1ISt5_BindIFSt7_Mem_fnIMN7cocos2d15TransitionSceneEFvvEEPNS5_20TransitionShrinkGrowEEEvEET_
_ZNSt8functionIFvvEEC1ISt5_BindIFSt7_Mem_fnIMN7cocos2d15TransitionSceneEFvvEEPNS5_21TransitionFlipAngularEEEvEET_
_ZNSt8functionIFvvEEC1ISt5_BindIFSt7_Mem_fnIMN7cocos2d15TransitionSceneEFvvEEPNS5_22TransitionTurnOffTilesEEEvEET_
_ZNSt8functionIFvvEEC1ISt5_BindIFSt7_Mem_fnIMN7cocos2d15TransitionSceneEFvvEEPNS5_25TransitionZoomFlipAngularEEEvEET_
_ZNSt8functionIFvvEEC2ISt5_BindIFSt7_Mem_fnIM5PianoFvvEEPS5_EEvEET_
_ZNSt8functionIFvvEEC2ISt5_BindIFSt7_Mem_fnIMN7cocos2d15TransitionSceneEFvvEEPNS5_15TransitionFlipXEEEvEET_
_ZNSt8functionIFvvEEC2ISt5_BindIFSt7_Mem_fnIMN7cocos2d15TransitionSceneEFvvEEPNS5_15TransitionFlipYEEEvEET_
_ZNSt8functionIFvvEEC2ISt5_BindIFSt7_Mem_fnIMN7cocos2d15TransitionSceneEFvvEEPNS5_19TransitionZoomFlipXEEEvEET_
_ZNSt8functionIFvvEEC2ISt5_BindIFSt7_Mem_fnIMN7cocos2d15TransitionSceneEFvvEEPNS5_19TransitionZoomFlipYEEEvEET_
_ZNSt8functionIFvvEEC2ISt5_BindIFSt7_Mem_fnIMN7cocos2d15TransitionSceneEFvvEEPNS5_20TransitionShrinkGrowEEEvEET_
_ZNSt8functionIFvvEEC2ISt5_BindIFSt7_Mem_fnIMN7cocos2d15TransitionSceneEFvvEEPNS5_21TransitionFlipAngularEEEvEET_
_ZNSt8functionIFvvEEC2ISt5_BindIFSt7_Mem_fnIMN7cocos2d15TransitionSceneEFvvEEPNS5_22TransitionTurnOffTilesEEEvEET_
_ZNSt8functionIFvvEEC2ISt5_BindIFSt7_Mem_fnIMN7cocos2d15TransitionSceneEFvvEEPNS5_25TransitionZoomFlipAngularEEEvEET_
_ZNSt9_Any_data9_M_accessIPSt5_BindIFSt7_Mem_fnIMN7cocos2d11MeshCommandEFvPNS3_11EventCustomEEEPS4_St12_PlaceholderILi1EEEEEERT_v
_ZNSt9_Any_data9_M_accessIPSt5_BindIFSt7_Mem_fnIMN7cocos2d11MeshCommandEFvPNS3_9GLProgramEPNS3_7UniformEEEPS4_St12_PlaceholderILi1EESD_ILi2EEEEEERT_v
_ZNSt9_Any_data9_M_accessIPSt5_BindIFSt7_Mem_fnIMN7cocos2d12TextureAtlasEFvPNS3_11EventCustomEEEPS4_St12_PlaceholderILi1EEEEEERT_v
_ZNSt9_Any_data9_M_accessIPSt5_BindIFSt7_Mem_fnIMN7cocos2d13RenderTextureEFvPNS3_11EventCustomEEEPS4_St12_PlaceholderILi1EEEEEERT_v
_ZNSt9_Any_data9_M_accessIPSt5_BindIFSt7_Mem_fnIMN7cocos2d15EventDispatcherEFviRKSsEEPS4_St12_PlaceholderILi1EESB_ILi2EEEEEERT_v
_ZNSt9_Any_data9_M_accessIPSt5_BindIFSt7_Mem_fnIMN7cocos2d15TransitionSceneEFvvEEPNS3_15TransitionFlipXEEEEERT_v
_ZNSt9_Any_data9_M_accessIPSt5_BindIFSt7_Mem_fnIMN7cocos2d15TransitionSceneEFvvEEPNS3_15TransitionFlipYEEEEERT_v
_ZNSt9_Any_data9_M_accessIPSt5_BindIFSt7_Mem_fnIMN7cocos2d15TransitionSceneEFvvEEPNS3_19TransitionZoomFlipXEEEEERT_v
_ZNSt9_Any_data9_M_accessIPSt5_BindIFSt7_Mem_fnIMN7cocos2d15TransitionSceneEFvvEEPNS3_19TransitionZoomFlipYEEEEERT_v
_ZNSt9_Any_data9_M_accessIPSt5_BindIFSt7_Mem_fnIMN7cocos2d15TransitionSceneEFvvEEPNS3_20TransitionShrinkGrowEEEEERT_v
_ZNSt9_Any_data9_M_accessIPSt5_BindIFSt7_Mem_fnIMN7cocos2d15TransitionSceneEFvvEEPNS3_21TransitionFlipAngularEEEEERT_v
_ZNSt9_Any_data9_M_accessIPSt5_BindIFSt7_Mem_fnIMN7cocos2d15TransitionSceneEFvvEEPNS3_22TransitionTurnOffTilesEEEEERT_v
_ZNSt9_Any_data9_M_accessIPSt5_BindIFSt7_Mem_fnIMN7cocos2d15TransitionSceneEFvvEEPNS3_25TransitionZoomFlipAngularEEEEERT_v
_ZNSt9_Any_data9_M_accessIPSt5_BindIFSt7_Mem_fnIMN7cocos2d18ParticleSystemQuadEFvPNS3_11EventCustomEEEPS4_St12_PlaceholderILi1EEEEEERT_v
_ZNSt9_Any_data9_M_accessIPSt5_BindIFSt7_Mem_fnIMN7cocos2d2ui6LayoutEFiNS4_6Widget14FocusDirectionEPS6_EEPS5_St12_PlaceholderILi1EESD_ILi2EEEEEERT_v
_ZNSt9_Any_data9_M_accessIPSt5_BindIFSt7_Mem_fnIMN7cocos2d2ui6Widget25FocusNavigationControllerEFvNS3_13EventKeyboard7KeyCodeEPNS3_5EventEEEPS6_St12_PlaceholderILi1EESF_ILi2EEEEEERT_v
_ZNSt9_Any_data9_M_accessIPSt5_BindIFSt7_Mem_fnIMN7cocos2d2ui6WidgetEFbPNS3_5TouchEPNS3_5EventEEEPS5_St12_PlaceholderILi1EESE_ILi2EEEEEERT_v
_ZNSt9_Any_data9_M_accessIPSt5_BindIFSt7_Mem_fnIMN7cocos2d2ui6WidgetEFvPNS3_5TouchEPNS3_5EventEEEPS5_St12_PlaceholderILi1EESE_ILi2EEEEEERT_v
_ZNSt9_Any_data9_M_accessIPSt5_BindIFSt7_Mem_fnIMN7cocos2d2ui6WidgetEFvPS5_S6_EES6_St12_PlaceholderILi1EESA_ILi2EEEEEERT_v
_ZNSt9_Any_data9_M_accessIPSt5_BindIFSt7_Mem_fnIMN7cocos2d5LayerEFbPNS3_5TouchEPNS3_5EventEEEPS4_St12_PlaceholderILi1EESD_ILi2EEEEEERT_v
_ZNSt9_Any_data9_M_accessIPSt5_BindIFSt7_Mem_fnIMN7cocos2d5LayerEFvNS3_13EventKeyboard7KeyCodeEPNS3_5EventEEEPS4_St12_PlaceholderILi1EESD_ILi2EEEEEERT_v
_ZNSt9_Any_data9_M_accessIPSt5_BindIFSt7_Mem_fnIMN7cocos2d5LayerEFvPNS3_12AccelerationEPNS3_5EventEEEPS4_St12_PlaceholderILi1EESD_ILi2EEEEEERT_v
_ZNSt9_Any_data9_M_accessIPSt5_BindIFSt7_Mem_fnIMN7cocos2d5LayerEFvPNS3_5TouchEPNS3_5EventEEEPS4_St12_PlaceholderILi1EESD_ILi2EEEEEERT_v
_ZNSt9_Any_data9_M_accessIPSt5_BindIFSt7_Mem_fnIMN7cocos2d5LayerEFvRKSt6vectorIPNS3_5TouchESaIS7_EEPNS3_5EventEEEPS4_St12_PlaceholderILi1EESI_ILi2EEEEEERT_v
_ZNSt9_Any_data9_M_accessIPSt5_BindIFSt7_Mem_fnIMN7cocos2d5SceneEFvPNS3_11EventCustomEEEPS4_St12_PlaceholderILi1EEEEEERT_v
_ZNSt9_Any_data9_M_accessIPSt5_BindIFSt7_Mem_fnIMN7cocos2d7ConsoleEFviEEPS4_St12_PlaceholderILi1EEEEEERT_v
_ZNSt9_Any_data9_M_accessIPSt5_BindIFSt7_Mem_fnIMN7cocos2d7ConsoleEFviRKSsEEPS4_St12_PlaceholderILi1EESB_ILi2EEEEEERT_v
_ZNSt9_Any_data9_M_accessIPSt5_BindIFSt7_Mem_fnIMN7cocos2d8CSLoaderEFPNS3_4NodeERKN9rapidjson12GenericValueINS7_4UTF8IcEENS7_19MemoryPoolAllocatorINS7_12CrtAllocatorEEEEEEEPS4_St12_PlaceholderILi1EEEEEERT_v
_ZNSt9_Any_data9_M_accessIPSt5_BindIFSt7_Mem_fnIMN7cocos2d8CSLoaderEFPNS3_9ComponentERKN9rapidjson12GenericValueINS7_4UTF8IcEENS7_19MemoryPoolAllocatorINS7_12CrtAllocatorEEEEEEEPS4_St12_PlaceholderILi1EEEEEERT_v
_ZNSt9_Any_data9_M_accessIPSt5_BindIFSt7_Mem_fnIMN7cocos2d9FontAtlasEFvPNS3_11EventCustomEEEPS4_St12_PlaceholderILi1EEEEEERT_v
_ZNSt9_Any_data9_M_accessIPSt5_BindIFSt7_Mem_fnIMN7cocos2d9extension10ScrollViewEFbPNS3_5TouchEPNS3_5EventEEEPS5_St12_PlaceholderILi1EESE_ILi2EEEEEERT_v
_ZNSt9_Any_data9_M_accessIPSt5_BindIFSt7_Mem_fnIMN7cocos2d9extension10ScrollViewEFvPNS3_4NodeEEEPS5_St12_PlaceholderILi1EEEEEERT_v
_ZNSt9_Any_data9_M_accessIPSt5_BindIFSt7_Mem_fnIMN7cocos2d9extension10ScrollViewEFvPNS3_5TouchEPNS3_5EventEEEPS5_St12_PlaceholderILi1EESE_ILi2EEEEEERT_v
_ZNSt9sub_matchIN9__gnu_cxx17__normal_iteratorIPKcSsEEEC1Ev
_ZNSt9sub_matchIN9__gnu_cxx17__normal_iteratorIPKcSsEEEC2Ev
_ZNSt9sub_matchIN9__gnu_cxx17__normal_iteratorIPKcSsEEEaSERKS5_
_ZNVKSt3_MuISt12_PlaceholderILi1EELb0ELb1EEclISt5tupleIJON7cocos2d13EventKeyboard7KeyCodeEOPNS5_5EventEEEEENS2_6resultIFS2_S1_T_EE4typeERVKS1_RSE_
_ZNVKSt3_MuISt12_PlaceholderILi1EELb0ELb1EEclISt5tupleIJON7cocos2d2ui6Widget14FocusDirectionEOPS7_EEEENS2_6resultIFS2_S1_T_EE4typeERVKS1_RSE_
_ZNVKSt3_MuISt12_PlaceholderILi1EELb0ELb1EEclISt5tupleIJOPN7cocos2d11EventCustomEEEEENS2_6resultIFS2_S1_T_EE4typeERVKS1_RSB_
_ZNVKSt3_MuISt12_PlaceholderILi1EELb0ELb1EEclISt5tupleIJOPN7cocos2d12AccelerationEOPNS5_5EventEEEEENS2_6resultIFS2_S1_T_EE4typeERVKS1_RSE_
_ZNVKSt3_MuISt12_PlaceholderILi1EELb0ELb1EEclISt5tupleIJOPN7cocos2d2ui6WidgetES9_EEEENS2_6resultIFS2_S1_T_EE4typeERVKS1_RSC_
_ZNVKSt3_MuISt12_PlaceholderILi1EELb0ELb1EEclISt5tupleIJOPN7cocos2d4NodeEEEEENS2_6resultIFS2_S1_T_EE4typeERVKS1_RSB_
_ZNVKSt3_MuISt12_PlaceholderILi1EELb0ELb1EEclISt5tupleIJOPN7cocos2d5TouchEOPNS5_5EventEEEEENS2_6resultIFS2_S1_T_EE4typeERVKS1_RSE_
_ZNVKSt3_MuISt12_PlaceholderILi1EELb0ELb1EEclISt5tupleIJOPN7cocos2d9GLProgramEOPNS5_7UniformEEEEENS2_6resultIFS2_S1_T_EE4typeERVKS1_RSE_
_ZNVKSt3_MuISt12_PlaceholderILi1EELb0ELb1EEclISt5tupleIJOiRKSsEEEENS2_6resultIFS2_S1_T_EE4typeERVKS1_RSA_
_ZNVKSt3_MuISt12_PlaceholderILi1EELb0ELb1EEclISt5tupleIJRKN9rapidjson12GenericValueINS5_4UTF8IcEENS5_19MemoryPoolAllocatorINS5_12CrtAllocatorEEEEEEEEENS2_6resultIFS2_S1_T_EE4typeERVKS1_RSH_
_ZNVKSt3_MuISt12_PlaceholderILi1EELb0ELb1EEclISt5tupleIJRKSt6vectorIPN7cocos2d5TouchESaIS8_EEOPNS6_5EventEEEEENS2_6resultIFS2_S1_T_EE4typeERVKS1_RSI_
_ZNVKSt3_MuISt12_PlaceholderILi2EELb0ELb1EEclISt5tupleIJON7cocos2d13EventKeyboard7KeyCodeEOPNS5_5EventEEEEENS2_6resultIFS2_S1_T_EE4typeERVKS1_RSE_
_ZNVKSt3_MuISt12_PlaceholderILi2EELb0ELb1EEclISt5tupleIJON7cocos2d2ui6Widget14FocusDirectionEOPS7_EEEENS2_6resultIFS2_S1_T_EE4typeERVKS1_RSE_
_ZNVKSt3_MuISt12_PlaceholderILi2EELb0ELb1EEclISt5tupleIJOPN7cocos2d12AccelerationEOPNS5_5EventEEEEENS2_6resultIFS2_S1_T_EE4typeERVKS1_RSE_
_ZNVKSt3_MuISt12_PlaceholderILi2EELb0ELb1EEclISt5tupleIJOPN7cocos2d2ui6WidgetES9_EEEENS2_6resultIFS2_S1_T_EE4typeERVKS1_RSC_
_ZNVKSt3_MuISt12_PlaceholderILi2EELb0ELb1EEclISt5tupleIJOPN7cocos2d5TouchEOPNS5_5EventEEEEENS2_6resultIFS2_S1_T_EE4typeERVKS1_RSE_
_ZNVKSt3_MuISt12_PlaceholderILi2EELb0ELb1EEclISt5tupleIJOPN7cocos2d9GLProgramEOPNS5_7UniformEEEEENS2_6resultIFS2_S1_T_EE4typeERVKS1_RSE_
_ZNVKSt3_MuISt12_PlaceholderILi2EELb0ELb1EEclISt5tupleIJOiRKSsEEEENS2_6resultIFS2_S1_T_EE4typeERVKS1_RSA_
_ZNVKSt3_MuISt12_PlaceholderILi2EELb0ELb1EEclISt5tupleIJRKSt6vectorIPN7cocos2d5TouchESaIS8_EEOPNS6_5EventEEEEENS2_6resultIFS2_S1_T_EE4typeERVKS1_RSI_
_ZSt10_ConstructISt4pairIlSt6vectorISt9sub_matchIN9__gnu_cxx17__normal_iteratorIPKcSsEEESaIS8_EEEJSB_EEvPT_DpOT0_
_ZSt10_ConstructISt9sub_matchIN9__gnu_cxx17__normal_iteratorIPKcSsEEEJEEvPT_DpOT0_
_ZSt10_ConstructISt9sub_matchIN9__gnu_cxx17__normal_iteratorIPKcSsEEEJRKS6_EEvPT_DpOT0_
_ZSt10_ConstructISt9sub_matchIN9__gnu_cxx17__normal_iteratorIPKcSsEEEJRS6_EEvPT_DpOT0_
_ZSt10_ConstructISt9sub_matchIN9__gnu_cxx17__normal_iteratorIPKcSsEEEJS6_EEvPT_DpOT0_
_ZSt10__distanceIN9__gnu_cxx17__normal_iteratorIPDsSt6vectorIDsSaIDsEEEEENSt15iterator_traitsIT_E15difference_typeES8_S8_St26random_access_iterator_tag
_ZSt10__distanceIN9__gnu_cxx17__normal_iteratorIPKcSsEEENSt15iterator_traitsIT_E15difference_typeES6_S6_St26random_access_iterator_tag
_ZSt10__distanceIN9__gnu_cxx17__normal_iteratorIPcSsEEENSt15iterator_traitsIT_E15difference_typeES5_S5_St26random_access_iterator_tag
_ZSt11__addressofISt4pairIlSt6vectorISt9sub_matchIN9__gnu_cxx17__normal_iteratorIPKcSsEEESaIS8_EEEEPT_RSC_
_ZSt11__addressofISt9sub_matchIN9__gnu_cxx17__normal_iteratorIPKcSsEEEEPT_RS7_
_ZSt11regex_matchIN9__gnu_cxx17__normal_iteratorIPKcSsEESaISt9sub_matchIS4_EEcSt12regex_traitsIcEEbT_SA_RSt13match_resultsISA_T0_ERKSt11basic_regexIT1_T2_ENSt15regex_constants15match_flag_typeE
_ZSt11regex_matchIN9__gnu_cxx17__normal_iteratorIPKcSsEEcSt12regex_traitsIcEEbT_S7_RKSt11basic_regexIT0_T1_ENSt15regex_constants15match_flag_typeE
_ZSt12__get_helperILm0EPNSt8__detail9_ExecutorIN9__gnu_cxx17__normal_iteratorIPKcSsEESaISt9sub_matchIS6_EESt12regex_traitsIcELb0EEEJSt14default_deleteISC_EEENSt11__add_c_refIT0_E4typeERKSt11_Tuple_implIXT_EJSH_DpT1_EE
_ZSt12__get_helperILm0EPNSt8__detail9_ExecutorIN9__gnu_cxx17__normal_iteratorIPKcSsEESaISt9sub_matchIS6_EESt12regex_traitsIcELb0EEEJSt14default_deleteISC_EEENSt9__add_refIT0_E4typeERSt11_Tuple_implIXT_EJSH_DpT1_EE
_ZSt12__get_helperILm0EPNSt8__detail9_ExecutorIN9__gnu_cxx17__normal_iteratorIPKcSsEESaISt9sub_matchIS6_EESt12regex_traitsIcELb1EEEJSt14default_deleteISC_EEENSt11__add_c_refIT0_E4typeERKSt11_Tuple_implIXT_EJSH_DpT1_EE
_ZSt12__get_helperILm0EPNSt8__detail9_ExecutorIN9__gnu_cxx17__normal_iteratorIPKcSsEESaISt9sub_matchIS6_EESt12regex_traitsIcELb1EEEJSt14default_deleteISC_EEENSt9__add_refIT0_E4typeERSt11_Tuple_implIXT_EJSH_DpT1_EE
_ZSt12__get_helperILm0EPSt6vectorISt4pairIlS0_ISt9sub_matchIN9__gnu_cxx17__normal_iteratorIPKcSsEEESaIS8_EEESaISB_EEJSt14default_deleteISD_EEENSt11__add_c_refIT0_E4typeERKSt11_Tuple_implIXT_EJSI_DpT1_EE
_ZSt12__get_helperILm0EPSt6vectorISt4pairIlS0_ISt9sub_matchIN9__gnu_cxx17__normal_iteratorIPKcSsEEESaIS8_EEESaISB_EEJSt14default_deleteISD_EEENSt9__add_refIT0_E4typeERSt11_Tuple_implIXT_EJSI_DpT1_EE
_ZSt12__get_helperILm1ESt12_PlaceholderILi1EEJEENSt9__add_refIT0_E4typeERSt11_Tuple_implIXT_EJS3_DpT1_EE
_ZSt12__get_helperILm1ESt12_PlaceholderILi1EEJS0_ILi2EEEENSt9__add_refIT0_E4typeERSt11_Tuple_implIXT_EJS4_DpT1_EE
_ZSt12__get_helperILm1ESt14default_deleteINSt8__detail9_ExecutorIN9__gnu_cxx17__normal_iteratorIPKcSsEESaISt9sub_matchIS7_EESt12regex_traitsIcELb0EEEEJEENSt9__add_refIT0_E4typeERSt11_Tuple_implIXT_EJSG_DpT1_EE
_ZSt12__get_helperILm1ESt14default_deleteINSt8__detail9_ExecutorIN9__gnu_cxx17__normal_iteratorIPKcSsEESaISt9sub_matchIS7_EESt12regex_traitsIcELb1EEEEJEENSt9__add_refIT0_E4typeERSt11_Tuple_implIXT_EJSG_DpT1_EE
_ZSt12__get_helperILm1ESt14default_deleteISt6vectorISt4pairIlS1_ISt9sub_matchIN9__gnu_cxx17__normal_iteratorIPKcSsEEESaIS9_EEESaISC_EEEJEENSt9__add_refIT0_E4typeERSt11_Tuple_implIXT_EJSH_DpT1_EE
_ZSt12__get_helperILm2ESt12_PlaceholderILi2EEJEENSt9__add_refIT0_E4typeERSt11_Tuple_implIXT_EJS3_DpT1_EE
_ZSt12__miter_baseIN9__gnu_cxx17__normal_iteratorIPDsSt6vectorIDsSaIDsEEEEENSt11_Miter_baseIT_E13iterator_typeES8_
_ZSt12__miter_baseIN9__gnu_cxx17__normal_iteratorIPKSsSt6vectorISsSaISsEEEEENSt11_Miter_baseIT_E13iterator_typeES9_
_ZSt12__miter_baseIN9__gnu_cxx17__normal_iteratorIPKSt9sub_matchINS1_IPKcSsEEESt6vectorIS6_SaIS6_EEEEENSt11_Miter_baseIT_E13iterator_typeESE_
_ZSt12__miter_baseIN9__gnu_cxx17__normal_iteratorIPSsSt6vectorISsSaISsEEEEENSt11_Miter_baseIT_E13iterator_typeES8_
_ZSt12__miter_baseIN9__gnu_cxx17__normal_iteratorIPfSt6vectorIfSaIfEEEEENSt11_Miter_baseIT_E13iterator_typeES8_
_ZSt12__miter_baseIN9__gnu_cxx17__normal_iteratorIPiSt6vectorIiSaIiEEEEENSt11_Miter_baseIT_E13iterator_typeES8_
_ZSt12__miter_baseIPSt9sub_matchIN9__gnu_cxx17__normal_iteratorIPKcSsEEEENSt11_Miter_baseIT_E13iterator_typeES9_
_ZSt12__niter_baseIN9__gnu_cxx17__normal_iteratorIPDsSt6vectorIDsSaIDsEEEEENSt11_Niter_baseIT_E13iterator_typeES8_
_ZSt12__niter_baseIN9__gnu_cxx17__normal_iteratorIPKSsSt6vectorISsSaISsEEEEENSt11_Niter_baseIT_E13iterator_typeES9_
_ZSt12__niter_baseIN9__gnu_cxx17__normal_iteratorIPKSt9sub_matchINS1_IPKcSsEEESt6vectorIS6_SaIS6_EEEEENSt11_Niter_baseIT_E13iterator_typeESE_
_ZSt12__niter_baseIN9__gnu_cxx17__normal_iteratorIPSsSt6vectorISsSaISsEEEEENSt11_Niter_baseIT_E13iterator_typeES8_
_ZSt12__niter_baseIN9__gnu_cxx17__normal_iteratorIPSt9sub_matchINS1_IPKcSsEEESt6vectorIS6_SaIS6_EEEEENSt11_Niter_baseIT_E13iterator_typeESD_
_ZSt12__niter_baseIN9__gnu_cxx17__normal_iteratorIPcSt6vectorIcSaIcEEEEENSt11_Niter_baseIT_E13iterator_typeES8_
_ZSt12__niter_baseIN9__gnu_cxx17__normal_iteratorIPfSt6vectorIfSaIfEEEEENSt11_Niter_baseIT_E13iterator_typeES8_
_ZSt12__niter_baseIN9__gnu_cxx17__normal_iteratorIPiSt6vectorIiSaIiEEEEENSt11_Niter_baseIT_E13iterator_typeES8_
_ZSt12__niter_baseIN9__gnu_cxx17__normal_iteratorIPtSt6vectorItSaItEEEEENSt11_Niter_baseIT_E13iterator_typeES8_
_ZSt12__niter_baseIPSt9sub_matchIN9__gnu_cxx17__normal_iteratorIPKcSsEEEENSt11_Niter_baseIT_E13iterator_typeES9_
_ZSt13__copy_move_aILb0EPKSt9sub_matchIN9__gnu_cxx17__normal_iteratorIPKcSsEEEPS6_ET1_T0_SB_SA_
_ZSt13__copy_move_aILb0EPSt9sub_matchIN9__gnu_cxx17__normal_iteratorIPKcSsEEES7_ET1_T0_S9_S8_
_ZSt13move_backwardIN9__gnu_cxx17__normal_iteratorIPfSt6vectorIfSaIfEEEES6_ET0_T_S8_S7_
_ZSt14__copy_move_a2ILb0EN9__gnu_cxx17__normal_iteratorIPDsSt6vectorIDsSaIDsEEEES6_ET1_T0_S8_S7_
_ZSt14__copy_move_a2ILb0EN9__gnu_cxx17__normal_iteratorIPKSsSt6vectorISsSaISsEEEENS1_IPSsS6_EEET1_T0_SB_SA_
_ZSt14__copy_move_a2ILb0EN9__gnu_cxx17__normal_iteratorIPKSt9sub_matchINS1_IPKcSsEEESt6vectorIS6_SaIS6_EEEENS1_IPS6_SB_EEET1_T0_SG_SF_
_ZSt14__copy_move_a2ILb0EPKtN9__gnu_cxx17__normal_iteratorIPtSt6vectorItSaItEEEEET1_T0_SA_S9_
_ZSt14__copy_move_a2ILb0EPSt9sub_matchIN9__gnu_cxx17__normal_iteratorIPKcSsEEES7_ET1_T0_S9_S8_
_ZSt14__copy_move_a2ILb0EPcN9__gnu_cxx17__normal_iteratorIS0_St6vectorIcSaIcEEEEET1_T0_S8_S7_
_ZSt14__copy_move_a2ILb1EN9__gnu_cxx17__normal_iteratorIPDsSt6vectorIDsSaIDsEEEES6_ET1_T0_S8_S7_
_ZSt14__copy_move_a2ILb1EN9__gnu_cxx17__normal_iteratorIPSsSt6vectorISsSaISsEEEES6_ET1_T0_S8_S7_
_ZSt14__copy_move_a2ILb1EN9__gnu_cxx17__normal_iteratorIPiSt6vectorIiSaIiEEEES6_ET1_T0_S8_S7_
_ZSt15__alloc_on_copyISaISt9sub_matchIN9__gnu_cxx17__normal_iteratorIPKcSsEEEEEvRT_RKS8_
_ZSt15__alloc_on_moveISaISt9sub_matchIN9__gnu_cxx17__normal_iteratorIPKcSsEEEEEvRT_S9_
_ZSt17rethrow_exceptionNSt15__exception_ptr13exception_ptrE
_ZSt18__do_alloc_on_copyISaISt9sub_matchIN9__gnu_cxx17__normal_iteratorIPKcSsEEEEEvRT_RKS8_St17integral_constantIbLb0EE
_ZSt18__do_alloc_on_moveISaISt9sub_matchIN9__gnu_cxx17__normal_iteratorIPKcSsEEEEEvRT_S9_St17integral_constantIbLb1EE
_ZSt18uninitialized_copyIN9__gnu_cxx17__normal_iteratorIPDsSt6vectorIDsSaIDsEEEES2_ET0_T_S8_S7_
_ZSt18uninitialized_copyIN9__gnu_cxx17__normal_iteratorIPKNSt12regex_traitsIcE10_RegexMaskESt6vectorIS4_SaIS4_EEEEPS4_ET0_T_SD_SC_
_ZSt18uninitialized_copyIN9__gnu_cxx17__normal_iteratorIPKSsSt6vectorISsSaISsEEEEPSsET0_T_SA_S9_
_ZSt18uninitialized_copyIN9__gnu_cxx17__normal_iteratorIPKSt4pairISsSsESt6vectorIS3_SaIS3_EEEEPS3_ET0_T_SC_SB_
_ZSt18uninitialized_copyIN9__gnu_cxx17__normal_iteratorIPKSt4pairIccESt6vectorIS3_SaIS3_EEEEPS3_ET0_T_SC_SB_
_ZSt18uninitialized_copyIN9__gnu_cxx17__normal_iteratorIPKSt8functionIFvvEESt6vectorIS4_SaIS4_EEEEPS4_ET0_T_SD_SC_
_ZSt18uninitialized_copyIN9__gnu_cxx17__normal_iteratorIPKSt9sub_matchINS1_IPKcSsEEESt6vectorIS6_SaIS6_EEEEPS6_ET0_T_SF_SE_
_ZSt18uninitialized_copyIN9__gnu_cxx17__normal_iteratorIPKcSt6vectorIcSaIcEEEEPcET0_T_SA_S9_
_ZSt18uninitialized_copyIPSt9sub_matchIN9__gnu_cxx17__normal_iteratorIPKcSsEEES7_ET0_T_S9_S8_
_ZSt18uninitialized_copyISt13move_iteratorIPSt4pairIlSt6vectorISt9sub_matchIN9__gnu_cxx17__normal_iteratorIPKcSsEEESaIS9_EEEESD_ET0_T_SG_SF_
_ZSt18uninitialized_copyISt13move_iteratorIPSt9sub_matchIN9__gnu_cxx17__normal_iteratorIPKcSsEEEES8_ET0_T_SB_SA_
_ZSt19__iterator_categoryIN9__gnu_cxx17__normal_iteratorIPDsSt6vectorIDsSaIDsEEEEENSt15iterator_traitsIT_E17iterator_categoryERKS8_
_ZSt19__iterator_categoryIN9__gnu_cxx17__normal_iteratorIPKSsSt6vectorISsSaISsEEEEENSt15iterator_traitsIT_E17iterator_categoryERKS9_
_ZSt19__iterator_categoryIN9__gnu_cxx17__normal_iteratorIPKcSsEEENSt15iterator_traitsIT_E17iterator_categoryERKS6_
_ZSt19__iterator_categoryIN9__gnu_cxx17__normal_iteratorIPKcSt6vectorIcSaIcEEEEENSt15iterator_traitsIT_E17iterator_categoryERKS9_
_ZSt19__iterator_categoryIN9__gnu_cxx17__normal_iteratorIPcSsEEENSt15iterator_traitsIT_E17iterator_categoryERKS5_
_ZSt19__iterator_categoryIN9__gnu_cxx17__normal_iteratorIPiSt6vectorIiSaIiEEEEENSt15iterator_traitsIT_E17iterator_categoryERKS8_
_ZSt19__iterator_categoryISt16reverse_iteratorIN9__gnu_cxx17__normal_iteratorIPcSsEEEENSt15iterator_traitsIT_E17iterator_categoryERKS7_
_ZSt20__throw_bad_weak_ptrv
_ZSt22__uninitialized_copy_aIN9__gnu_cxx17__normal_iteratorIPDsSt6vectorIDsSaIDsEEEES2_DsET0_T_S8_S7_RSaIT1_E
_ZSt22__uninitialized_copy_aIN9__gnu_cxx17__normal_iteratorIPKNSt12regex_traitsIcE10_RegexMaskESt6vectorIS4_SaIS4_EEEEPS4_S4_ET0_T_SD_SC_RSaIT1_E
_ZSt22__uninitialized_copy_aIN9__gnu_cxx17__normal_iteratorIPKSsSt6vectorISsSaISsEEEEPSsSsET0_T_SA_S9_RSaIT1_E
_ZSt22__uninitialized_copy_aIN9__gnu_cxx17__normal_iteratorIPKSt4pairISsSsESt6vectorIS3_SaIS3_EEEEPS3_S3_ET0_T_SC_SB_RSaIT1_E
_ZSt22__uninitialized_copy_aIN9__gnu_cxx17__normal_iteratorIPKSt4pairIccESt6vectorIS3_SaIS3_EEEEPS3_S3_ET0_T_SC_SB_RSaIT1_E
_ZSt22__uninitialized_copy_aIN9__gnu_cxx17__normal_iteratorIPKSt8functionIFvvEESt6vectorIS4_SaIS4_EEEEPS4_S4_ET0_T_SD_SC_RSaIT1_E
_ZSt22__uninitialized_copy_aIN9__gnu_cxx17__normal_iteratorIPKSt9sub_matchINS1_IPKcSsEEESt6vectorIS6_SaIS6_EEEEPS6_S6_ET0_T_SF_SE_RSaIT1_E
_ZSt22__uninitialized_copy_aIN9__gnu_cxx17__normal_iteratorIPKcSt6vectorIcSaIcEEEEPccET0_T_SA_S9_RSaIT1_E
_ZSt22__uninitialized_copy_aIPSt9sub_matchIN9__gnu_cxx17__normal_iteratorIPKcSsEEES7_S6_ET0_T_S9_S8_RSaIT1_E
_ZSt22__uninitialized_copy_aISt13move_iteratorIPSt4pairIlSt6vectorISt9sub_matchIN9__gnu_cxx17__normal_iteratorIPKcSsEEESaIS9_EEEESD_SC_ET0_T_SG_SF_RSaIT1_E
_ZSt22__uninitialized_copy_aISt13move_iteratorIPSt9sub_matchIN9__gnu_cxx17__normal_iteratorIPKcSsEEEES8_S7_ET0_T_SB_SA_RSaIT1_E
_ZSt23__copy_move_backward_a2ILb1EN9__gnu_cxx17__normal_iteratorIPfSt6vectorIfSaIfEEEES6_ET1_T0_S8_S7_
_ZSt25__uninitialized_default_nIPSt9sub_matchIN9__gnu_cxx17__normal_iteratorIPKcSsEEEmEvT_T0_
_ZSt27__uninitialized_default_n_aIPSt9sub_matchIN9__gnu_cxx17__normal_iteratorIPKcSsEEEmS6_EvT_T0_RSaIT1_E
_ZSt32__make_move_if_noexcept_iteratorIPSt4pairIlSt6vectorISt9sub_matchIN9__gnu_cxx17__normal_iteratorIPKcSsEEESaIS8_EEESt13move_iteratorISC_EET0_T_
_ZSt32__make_move_if_noexcept_iteratorIPSt9sub_matchIN9__gnu_cxx17__normal_iteratorIPKcSsEEESt13move_iteratorIS7_EET0_T_
_ZSt34__uninitialized_move_if_noexcept_aIPSt4pairIlSt6vectorISt9sub_matchIN9__gnu_cxx17__normal_iteratorIPKcSsEEESaIS8_EEESC_SaISB_EET0_T_SF_SE_RT1_
_ZSt34__uninitialized_move_if_noexcept_aIPSt9sub_matchIN9__gnu_cxx17__normal_iteratorIPKcSsEEES7_SaIS6_EET0_T_SA_S9_RT1_
_ZSt3getILm0EJPNSt8__detail9_ExecutorIN9__gnu_cxx17__normal_iteratorIPKcSsEESaISt9sub_matchIS6_EESt12regex_traitsIcELb0EEESt14default_deleteISC_EEENSt11__add_c_refINSt13tuple_elementIXT_ESt5tupleIJDpT0_EEE4typeEE4typeERKSL_
_ZSt3getILm0EJPNSt8__detail9_ExecutorIN9__gnu_cxx17__normal_iteratorIPKcSsEESaISt9sub_matchIS6_EESt12regex_traitsIcELb0EEESt14default_deleteISC_EEENSt9__add_refINSt13tuple_elementIXT_ESt5tupleIJDpT0_EEE4typeEE4typeERSL_
_ZSt3getILm0EJPNSt8__detail9_ExecutorIN9__gnu_cxx17__normal_iteratorIPKcSsEESaISt9sub_matchIS6_EESt12regex_traitsIcELb1EEESt14default_deleteISC_EEENSt11__add_c_refINSt13tuple_elementIXT_ESt5tupleIJDpT0_EEE4typeEE4typeERKSL_
_ZSt3getILm0EJPNSt8__detail9_ExecutorIN9__gnu_cxx17__normal_iteratorIPKcSsEESaISt9sub_matchIS6_EESt12regex_traitsIcELb1EEESt14default_deleteISC_EEENSt9__add_refINSt13tuple_elementIXT_ESt5tupleIJDpT0_EEE4typeEE4typeERSL_
_ZSt3getILm0EJPSt6vectorISt4pairIlS0_ISt9sub_matchIN9__gnu_cxx17__normal_iteratorIPKcSsEEESaIS8_EEESaISB_EESt14default_deleteISD_EEENSt11__add_c_refINSt13tuple_elementIXT_ESt5tupleIJDpT0_EEE4typeEE4typeERKSM_
_ZSt3getILm0EJPSt6vectorISt4pairIlS0_ISt9sub_matchIN9__gnu_cxx17__normal_iteratorIPKcSsEEESaIS8_EEESaISB_EESt14default_deleteISD_EEENSt9__add_refINSt13tuple_elementIXT_ESt5tupleIJDpT0_EEE4typeEE4typeERSM_
_ZSt3getILm1EJPNSt8__detail9_ExecutorIN9__gnu_cxx17__normal_iteratorIPKcSsEESaISt9sub_matchIS6_EESt12regex_traitsIcELb0EEESt14default_deleteISC_EEENSt9__add_refINSt13tuple_elementIXT_ESt5tupleIJDpT0_EEE4typeEE4typeERSL_
_ZSt3getILm1EJPNSt8__detail9_ExecutorIN9__gnu_cxx17__normal_iteratorIPKcSsEESaISt9sub_matchIS6_EESt12regex_traitsIcELb1EEESt14default_deleteISC_EEENSt9__add_refINSt13tuple_elementIXT_ESt5tupleIJDpT0_EEE4typeEE4typeERSL_
_ZSt3getILm1EJPSt6vectorISt4pairIlS0_ISt9sub_matchIN9__gnu_cxx17__normal_iteratorIPKcSsEEESaIS8_EEESaISB_EESt14default_deleteISD_EEENSt9__add_refINSt13tuple_elementIXT_ESt5tupleIJDpT0_EEE4typeEE4typeERSM_
_ZSt4copyIN9__gnu_cxx17__normal_iteratorIPDsSt6vectorIDsSaIDsEEEES6_ET0_T_S8_S7_
_ZSt4copyIN9__gnu_cxx17__normal_iteratorIPKSsSt6vectorISsSaISsEEEENS1_IPSsS6_EEET0_T_SB_SA_
_ZSt4copyIN9__gnu_cxx17__normal_iteratorIPKSt9sub_matchINS1_IPKcSsEEESt6vectorIS6_SaIS6_EEEENS1_IPS6_SB_EEET0_T_SG_SF_
_ZSt4copyIPKtN9__gnu_cxx17__normal_iteratorIPtSt6vectorItSaItEEEEET0_T_SA_S9_
_ZSt4copyIPSt9sub_matchIN9__gnu_cxx17__normal_iteratorIPKcSsEEES7_ET0_T_S9_S8_
_ZSt4copyIPcN9__gnu_cxx17__normal_iteratorIS0_St6vectorIcSaIcEEEEET0_T_S8_S7_
_ZSt4fillIN9__gnu_cxx17__normal_iteratorIPfSt6vectorIfSaIfEEEEfEvT_S7_RKT0_
_ZSt4findIN9__gnu_cxx17__normal_iteratorIPKSsSt6vectorISsSaISsEEEESsET_S8_S8_RKT0_
_ZSt4findIN9__gnu_cxx17__normal_iteratorIPKcSt6vectorIcSaIcEEEEcET_S8_S8_RKT0_
_ZSt4moveIN9__gnu_cxx17__normal_iteratorIPDsSt6vectorIDsSaIDsEEEES6_ET0_T_S8_S7_
_ZSt4moveIN9__gnu_cxx17__normal_iteratorIPSsSt6vectorISsSaISsEEEES6_ET0_T_S8_S7_
_ZSt4moveIN9__gnu_cxx17__normal_iteratorIPiSt6vectorIiSaIiEEEES6_ET0_T_S8_S7_
_ZSt4moveIRPSt4pairIlSt6vectorISt9sub_matchIN9__gnu_cxx17__normal_iteratorIPKcSsEEESaIS8_EEEEONSt16remove_referenceIT_E4typeEOSF_
_ZSt4moveIRPSt9sub_matchIN9__gnu_cxx17__normal_iteratorIPKcSsEEEEONSt16remove_referenceIT_E4typeEOSA_
_ZSt4moveIRSaISt4pairIlSt6vectorISt9sub_matchIN9__gnu_cxx17__normal_iteratorIPKcSsEEESaIS8_EEEEEONSt16remove_referenceIT_E4typeEOSF_
_ZSt4moveIRSaISt9sub_matchIN9__gnu_cxx17__normal_iteratorIPKcSsEEEEEONSt16remove_referenceIT_E4typeEOSA_
_ZSt4moveIRSt11_Tuple_implILm1EJSt12_PlaceholderILi1EEEEEONSt16remove_referenceIT_E4typeEOS6_
_ZSt4moveIRSt11_Tuple_implILm1EJSt12_PlaceholderILi1EES1_ILi2EEEEEONSt16remove_referenceIT_E4typeEOS7_
_ZSt4moveIRSt11_Tuple_implILm2EJSt12_PlaceholderILi2EEEEEONSt16remove_referenceIT_E4typeEOS6_
_ZSt4moveIRSt4pairIlSt6vectorISt9sub_matchIN9__gnu_cxx17__normal_iteratorIPKcSsEEESaIS8_EEEEONSt16remove_referenceIT_E4typeEOSE_
_ZSt4moveIRSt6vectorISt4pairIlS0_ISt9sub_matchIN9__gnu_cxx17__normal_iteratorIPKcSsEEESaIS8_EEESaISB_EEEONSt16remove_referenceIT_E4typeEOSG_
_ZSt4moveIRSt6vectorISt9sub_matchIN9__gnu_cxx17__normal_iteratorIPKcSsEEESaIS7_EEEONSt16remove_referenceIT_E4typeEOSC_
_ZSt4moveIRSt9sub_matchIN9__gnu_cxx17__normal_iteratorIPKcSsEEEEONSt16remove_referenceIT_E4typeEOS9_
_ZSt4swapIPSt4pairIlSt6vectorISt9sub_matchIN9__gnu_cxx17__normal_iteratorIPKcSsEEESaIS8_EEEEvRT_SE_
_ZSt4swapIPSt9sub_matchIN9__gnu_cxx17__normal_iteratorIPKcSsEEEEvRT_S9_
_ZSt6removeIN9__gnu_cxx17__normal_iteratorIPiSt6vectorIiSaIiEEEEiET_S7_S7_RKT0_
_ZSt7advanceIN9__gnu_cxx17__normal_iteratorIPDsSt6vectorIDsSaIDsEEEEmEvRT_T0_
_ZSt7find_ifIN9__gnu_cxx17__normal_iteratorIPcSsEESt12unary_negateISt25pointer_to_unary_functionIiiEEET_S8_S8_T0_
_ZSt7find_ifISt16reverse_iteratorIN9__gnu_cxx17__normal_iteratorIPcSsEEESt12unary_negateISt25pointer_to_unary_functionIiiEEET_SA_SA_T0_
_ZSt7forwardIRKSt12_PlaceholderILi1EEEOT_RNSt16remove_referenceIS4_E4typeE
_ZSt7forwardIRKSt12_PlaceholderILi2EEEOT_RNSt16remove_referenceIS4_E4typeE
_ZSt7forwardIRKSt9sub_matchIN9__gnu_cxx17__normal_iteratorIPKcSsEEEEOT_RNSt16remove_referenceIS9_E4typeE
_ZSt7forwardIRPNSt8__detail9_ExecutorIN9__gnu_cxx17__normal_iteratorIPKcSsEESaISt9sub_matchIS6_EESt12regex_traitsIcELb0EEEEOT_RNSt16remove_referenceISF_E4typeE
_ZSt7forwardIRPNSt8__detail9_ExecutorIN9__gnu_cxx17__normal_iteratorIPKcSsEESaISt9sub_matchIS6_EESt12regex_traitsIcELb1EEEEOT_RNSt16remove_referenceISF_E4typeE
_ZSt7forwardIRPSt6vectorISt4pairIlS0_ISt9sub_matchIN9__gnu_cxx17__normal_iteratorIPKcSsEEESaIS8_EEESaISB_EEEOT_RNSt16remove_referenceISG_E4typeE
_ZSt7forwardIRSt6vectorISt9sub_matchIN9__gnu_cxx17__normal_iteratorIPKcSsEEESaIS7_EEEOT_RNSt16remove_referenceISB_E4typeE
_ZSt7forwardIRSt9sub_matchIN9__gnu_cxx17__normal_iteratorIPKcSsEEEEOT_RNSt16remove_referenceIS8_E4typeE
_ZSt7forwardISt12_PlaceholderILi1EEEOT_RNSt16remove_referenceIS2_E4typeE
_ZSt7forwardISt12_PlaceholderILi2EEEOT_RNSt16remove_referenceIS2_E4typeE
_ZSt7forwardISt14default_deleteINSt8__detail9_ExecutorIN9__gnu_cxx17__normal_iteratorIPKcSsEESaISt9sub_matchIS7_EESt12regex_traitsIcELb0EEEEEOT_RNSt16remove_referenceISF_E4typeE
_ZSt7forwardISt14default_deleteINSt8__detail9_ExecutorIN9__gnu_cxx17__normal_iteratorIPKcSsEESaISt9sub_matchIS7_EESt12regex_traitsIcELb1EEEEEOT_RNSt16remove_referenceISF_E4typeE
_ZSt7forwardISt14default_deleteISt6vectorISt4pairIlS1_ISt9sub_matchIN9__gnu_cxx17__normal_iteratorIPKcSsEEESaIS9_EEESaISC_EEEEOT_RNSt16remove_referenceISG_E4typeE
_ZSt7forwardISt4pairIlSt6vectorISt9sub_matchIN9__gnu_cxx17__normal_iteratorIPKcSsEEESaIS8_EEEEOT_RNSt16remove_referenceISC_E4typeE
_ZSt7forwardISt9sub_matchIN9__gnu_cxx17__normal_iteratorIPKcSsEEEEOT_RNSt16remove_referenceIS7_E4typeE
_ZSt7nothrow
_ZSt8_DestroyIN9__gnu_cxx17__normal_iteratorIPSsSt6vectorISsSaISsEEEEEvT_S7_
_ZSt8_DestroyIN9__gnu_cxx17__normal_iteratorIPSsSt6vectorISsSaISsEEEESsEvT_S7_RSaIT0_E
_ZSt8_DestroyIN9__gnu_cxx17__normal_iteratorIPSt9sub_matchINS1_IPKcSsEEESt6vectorIS6_SaIS6_EEEEEvT_SC_
_ZSt8_DestroyIN9__gnu_cxx17__normal_iteratorIPSt9sub_matchINS1_IPKcSsEEESt6vectorIS6_SaIS6_EEEES6_EvT_SC_RSaIT0_E
_ZSt8_DestroyIPSt4pairIlSt6vectorISt9sub_matchIN9__gnu_cxx17__normal_iteratorIPKcSsEEESaIS8_EEEEvT_SD_
_ZSt8_DestroyIPSt4pairIlSt6vectorISt9sub_matchIN9__gnu_cxx17__normal_iteratorIPKcSsEEESaIS8_EEESB_EvT_SD_RSaIT0_E
_ZSt8_DestroyIPSt9sub_matchIN9__gnu_cxx17__normal_iteratorIPKcSsEEEEvT_S8_
_ZSt8_DestroyIPSt9sub_matchIN9__gnu_cxx17__normal_iteratorIPKcSsEEES6_EvT_S8_RSaIT0_E
_ZSt8_DestroyISt4pairIlSt6vectorISt9sub_matchIN9__gnu_cxx17__normal_iteratorIPKcSsEEESaIS8_EEEEvPT_
_ZSt8distanceIN9__gnu_cxx17__normal_iteratorIPDsSt6vectorIDsSaIDsEEEEENSt15iterator_traitsIT_E15difference_typeES8_S8_
_ZSt8distanceIN9__gnu_cxx17__normal_iteratorIPKcSsEEENSt15iterator_traitsIT_E15difference_typeES6_S6_
_ZSt8distanceIN9__gnu_cxx17__normal_iteratorIPcSsEEENSt15iterator_traitsIT_E15difference_typeES5_S5_
_ZSt9__advanceIN9__gnu_cxx17__normal_iteratorIPDsSt6vectorIDsSaIDsEEEElEvRT_T0_St26random_access_iterator_tag
_ZSt9iter_swapIN9__gnu_cxx17__normal_iteratorIPfSt6vectorIfSaIfEEEES6_EvT_T0_
_ZSt9make_pairIRKlRSt6vectorISt9sub_matchIN9__gnu_cxx17__normal_iteratorIPKcSsEEESaIS9_EEESt4pairINSt17__decay_and_stripIT_E6__typeENSE_IT0_E6__typeEEOSF_OSI_
_ZSt9make_pairIRlRSt6vectorISt9sub_matchIN9__gnu_cxx17__normal_iteratorIPKcSsEEESaIS8_EEESt4pairINSt17__decay_and_stripIT_E6__typeENSD_IT0_E6__typeEEOSE_OSH_
_ZSt9transformIN9__gnu_cxx17__normal_iteratorIPcSsEES3_PFiiEET0_T_S7_S6_T1_
_ZSteqIPSt4pairIlSt6vectorISt9sub_matchIN9__gnu_cxx17__normal_iteratorIPKcSsEEESaIS8_EEEEbRKSt13move_iteratorIT_ESH_
_ZSteqIPSt9sub_matchIN9__gnu_cxx17__normal_iteratorIPKcSsEEEEbRKSt13move_iteratorIT_ESC_
_ZStmiIN9__gnu_cxx17__normal_iteratorIPcSsEEENSt16reverse_iteratorIT_E15difference_typeERKS6_S9_
_ZStneIPSt4pairIlSt6vectorISt9sub_matchIN9__gnu_cxx17__normal_iteratorIPKcSsEEESaIS8_EEEEbRKSt13move_iteratorIT_ESH_
_ZStneIPSt9sub_matchIN9__gnu_cxx17__normal_iteratorIPKcSsEEEEbRKSt13move_iteratorIT_ESC_
_ZStneISt9sub_matchIN9__gnu_cxx17__normal_iteratorIPKcSsEEEEbRKSaIT_ESA_
_ZTINSt6thread5_ImplISt12_Bind_simpleIFPFvP10KMixReportP24whitetile2_mixerror_dataES3_S5_EEEE
_ZTINSt6thread5_ImplISt12_Bind_simpleIFPFvP19CMusicLoaderManagerES3_EEEE
_ZTINSt6thread5_ImplISt12_Bind_simpleIFSt7_Mem_fnIM12PlayerThreadFvvEEPS3_EEEE
_ZTINSt6thread5_ImplISt12_Bind_simpleIFSt7_Mem_fnIM5PianoFbvEEPS3_EEEE
_ZTISt23_Sp_counted_ptr_inplaceINSt6thread5_ImplISt12_Bind_simpleIFPFvP10KMixReportP24whitetile2_mixerror_dataES4_S6_EEEESaISB_ELN9__gnu_cxx12_Lock_policyE2EE
_ZTISt23_Sp_counted_ptr_inplaceINSt6thread5_ImplISt12_Bind_simpleIFPFvP19CMusicLoaderManagerES4_EEEESaIS9_ELN9__gnu_cxx12_Lock_policyE2EE
_ZTISt23_Sp_counted_ptr_inplaceINSt6thread5_ImplISt12_Bind_simpleIFSt7_Mem_fnIM12PlayerThreadFvvEEPS4_EEEESaISB_ELN9__gnu_cxx12_Lock_policyE2EE
_ZTISt23_Sp_counted_ptr_inplaceINSt6thread5_ImplISt12_Bind_simpleIFSt7_Mem_fnIM5PianoFbvEEPS4_EEEESaISB_ELN9__gnu_cxx12_Lock_policyE2EE
_ZTSNSt6thread5_ImplISt12_Bind_simpleIFPFvP10KMixReportP24whitetile2_mixerror_dataES3_S5_EEEE
_ZTSNSt6thread5_ImplISt12_Bind_simpleIFPFvP19CMusicLoaderManagerES3_EEEE
_ZTSNSt6thread5_ImplISt12_Bind_simpleIFSt7_Mem_fnIM12PlayerThreadFvvEEPS3_EEEE
_ZTSNSt6thread5_ImplISt12_Bind_simpleIFSt7_Mem_fnIM5PianoFbvEEPS3_EEEE
_ZTSSt23_Sp_counted_ptr_inplaceINSt6thread5_ImplISt12_Bind_simpleIFPFvP10KMixReportP24whitetile2_mixerror_dataES4_S6_EEEESaISB_ELN9__gnu_cxx12_Lock_policyE2EE
_ZTSSt23_Sp_counted_ptr_inplaceINSt6thread5_ImplISt12_Bind_simpleIFPFvP19CMusicLoaderManagerES4_EEEESaIS9_ELN9__gnu_cxx12_Lock_policyE2EE
_ZTSSt23_Sp_counted_ptr_inplaceINSt6thread5_ImplISt12_Bind_simpleIFSt7_Mem_fnIM12PlayerThreadFvvEEPS4_EEEESaISB_ELN9__gnu_cxx12_Lock_policyE2EE
_ZTSSt23_Sp_counted_ptr_inplaceINSt6thread5_ImplISt12_Bind_simpleIFSt7_Mem_fnIM5PianoFbvEEPS4_EEEESaISB_ELN9__gnu_cxx12_Lock_policyE2EE
_ZTVNSt6thread5_ImplISt12_Bind_simpleIFPFvP10KMixReportP24whitetile2_mixerror_dataES3_S5_EEEE
_ZTVNSt6thread5_ImplISt12_Bind_simpleIFPFvP19CMusicLoaderManagerES3_EEEE
_ZTVNSt6thread5_ImplISt12_Bind_simpleIFSt7_Mem_fnIM12PlayerThreadFvvEEPS3_EEEE
_ZTVNSt6thread5_ImplISt12_Bind_simpleIFSt7_Mem_fnIM5PianoFbvEEPS3_EEEE
_ZTVSt23_Sp_counted_ptr_inplaceINSt6thread5_ImplISt12_Bind_simpleIFPFvP10KMixReportP24whitetile2_mixerror_dataES4_S6_EEEESaISB_ELN9__gnu_cxx12_Lock_policyE2EE
_ZTVSt23_Sp_counted_ptr_inplaceINSt6thread5_ImplISt12_Bind_simpleIFPFvP19CMusicLoaderManagerES4_EEEESaIS9_ELN9__gnu_cxx12_Lock_policyE2EE
_ZTVSt23_Sp_counted_ptr_inplaceINSt6thread5_ImplISt12_Bind_simpleIFSt7_Mem_fnIM12PlayerThreadFvvEEPS4_EEEESaISB_ELN9__gnu_cxx12_Lock_policyE2EE
_ZTVSt23_Sp_counted_ptr_inplaceINSt6thread5_ImplISt12_Bind_simpleIFSt7_Mem_fnIM5PianoFbvEEPS4_EEEESaISB_ELN9__gnu_cxx12_Lock_policyE2EE
_ZZNKSt8__detail9_ExecutorIN9__gnu_cxx17__normal_iteratorIPKcSsEESaISt9sub_matchIS5_EESt12regex_traitsIcELb0EE10_M_is_wordEcE3__s
_ZZNKSt8__detail9_ExecutorIN9__gnu_cxx17__normal_iteratorIPKcSsEESaISt9sub_matchIS5_EESt12regex_traitsIcELb1EE10_M_is_wordEcE3__s
_ZdaPvRKSt9nothrow_t
_ZdlPvRKSt9nothrow_t
_ZnamRKSt9nothrow_t
_ZnwmRKSt9nothrow_t
__cxa_rethrow
__cxa_throw
__cxa_throw_bad_array_length
__cxa_throw_bad_array_new_length
__google_potentially_blocking_region_begin
__google_potentially_blocking_region_end
_bignum_dh1024_160_g
_bignum_dh1024_160_p
_bignum_dh1024_160_q
_bignum_dh2048_224_g
_bignum_dh2048_224_p
_bignum_dh2048_224_q
_bignum_dh2048_256_g
_bignum_dh2048_256_p
_bignum_dh2048_256_q
aes_v8_ctr32_encrypt_blocks
afm_parser_funcs
bn_mul_low_normal
bn_mul_normal
bn_sizeof_BIGNUM
bn_sqr_normal
cpArbiterGetNormal
cpSegmentShapeGetNormal
cpSpaceProcessComponents
custom_ext_parse
d2i_DISPLAYTEXT
dtls1_double_timeout
dtls1_process_buffered_records
dtls1_process_record
dtls1_record_replay_check
dtls_process_hello_verify
ecp_nistz256_point_double
i2d_DISPLAYTEXT
jcopy_block_row
jcopy_sample_rows
jpeg_set_marker_processor
level_add_node
level_find_node
longjmp
md4_block_data_order
md5_block_data_order
ossl_statem_client_post_process_message
ossl_statem_client_process_message
ossl_statem_server_post_process_message
ossl_statem_server_process_message
png_combine_row
png_get_current_row_number
png_get_rowbytes
png_get_rows
png_longjmp
png_read_filter_row
png_read_finish_row
png_read_row
png_read_rows
png_read_start_row
png_set_compression_level
png_set_compression_mem_level
png_set_longjmp_fn
png_set_rows
png_set_text_compression_level
png_set_text_compression_mem_level
png_write_finish_row
png_write_row
png_write_rows
png_write_start_row
poly1305_blocks
ps_parser_funcs
ripemd160_block_data_order
sha1_block_data_order
sha256_block_data_order
sha512_block_data_order
siglongjmp
ssl3_cleanup_key_block
ssl3_setup_key_block
ssl_parse_clienthello_renegotiate_ext
ssl_parse_clienthello_tlsext
ssl_parse_clienthello_use_srtp_ext
ssl_parse_serverhello_renegotiate_ext
ssl_parse_serverhello_tlsext
ssl_parse_serverhello_use_srtp_ext
tls1_process_sigalgs
tls1_setup_key_block
tls_post_process_client_hello
tls_post_process_client_key_exchange
tls_process_cert_status
tls_process_cert_verify
tls_process_certificate_request
tls_process_change_cipher_spec
tls_process_client_certificate
tls_process_client_hello
tls_process_client_key_exchange
tls_process_finished
tls_process_key_exchange
tls_process_new_session_ticket
tls_process_next_proto
tls_process_server_certificate
tls_process_server_done
tls_process_server_hello
v3_crl_hold
whirlpool_block
